(lp0
S'i am lol i have been'
p1
aS'thank you so much'
p2
aS'omg i cant believe you actually texted me'
p3
aS'hi i m a fan my names demeri and i want to to say your really funny and i like your comedy so keep doing what you do'
p4
aS'yea'
p5
aS'ok'
p6
aS'is this real'
p7
aS'can u plz follow me on musically'
p8
aS'i meant the one about mcdonald s'
p9
aS'hi'
p10
aS'thank u'
p11
aS'hi'
p12
aS'np'
p13
aS'how many people r texting you'
p14
aS'hey'
p15
aS'ur musicalys r funny'
p16
aS'what'
p17
aS'yes can you follow mine it s francesca deleo'
p18
aS'ok r u related to icejjfish i just want to know cause u don t like him at all not at all totally not at all'
p19
aS'hi'
p20
aS'sure'
p21
aS'hi'
p22
aS'ur so funny and awsome'
p23
aS'hi'
p24
aS'ok i m a huge fan u r awesome and super funny'
p25
aS'of course'
p26
aS'it s ok if u don t respond i understand but i would love for u to respond'
p27
aS'hi i love u'
p28
aS'sup'
p29
aS'your'
p30
aS'ok awesome'
p31
aS'hi'
p32
aS'ok'
p33
aS'this is going to sound really corny but i m guessing you like popcorn sooo anyway i love your videos so much they are hilarious and i think that this idea of having a separate number to interact with your fans is really cool i hope you get to reply to my text and hopefully check out my musically username juliareichhhh'
p34
aS'omg u responded'
p35
aS'you should start a youtube channel'
p36
aS'can i talk to you now'
p37
aS'kyle'
p38
aS'don t reply'
p39
aS'please answer me'
p40
aS'sure'
p41
aS'i already do and i turn you post notifications on'
p42
aS'hi my name is gabby and i think you are really funny'
p43
aS'hey kyle'
p44
aS'hello'
p45
aS'can u make make one of my vines that i made on my musically channel cool'
p46
aS'day made'
p47
aS'omg hi the main thing i wanted to say is thank you so much for just being amazing u always brighten up my day when u post a musically even when i didn t want to smile i did because of u so thank you for always being yourself'
p48
aS'hi u are so funny and ily'
p49
aS''
p50
aS'musical ly'
p51
aS'hay i love your vines your really talented can you try to post me you magke me laugh so much'
p52
aS'i m sorry i don t have instagram'
p53
aS'pls'
p54
aS'are you here'
p55
aS'yo i love ur vines man they r great keep doing what u do and keep up the good work'
p56
aS'heyy'
p57
aS'skyler'
p58
aS'i already am'
p59
aS'how ve u'
p60
aS'i do already'
p61
aS'ok btw your vines are halaroius'
p62
aS'okay thanks for letting me know hi i just wanted to say whenever i m sad i always take a look at your videos your videos always put a smile on my face so thank you for that'
p63
aS'no problem can you follow me on musically and can we start a streak on snap chat'
p64
aS'hi'
p65
aS'can you bff me and follow me please'
p66
aS'thanks for texting back your musicallys are so funny'
p67
aS'ok'
p68
aS'hey i love ur musicallys ur so funny and lit can u pls bff me bc i was on ur live ly the whole time and u never did my musically is avadesantis'
p69
aS'hi'
p70
aS'i love your musical ly'
p71
aS'omg i love you musicals and videos and vine u are so amazing i am ur biggest fan ever'
p72
aS'i am a fan'
p73
aS'hi i love you so much u are so funny'
p74
aS'so what'
p75
aS'hi can i just say u inspire me your vines are'
p76
aS'ur awesome at musically'
p77
aS'can you please give me tips for musically pls i really will appreciate it if you do'
p78
aS'hey kyle'
p79
aS'big fan'
p80
aS'kyle'
p81
aS'ok'
p82
aS'thx'
p83
aS'i already follow it and i love your posts'
p84
aS'hi kyle'
p85
aS'hey i love your musicallys they are so funny could u bff me duhitzange that would make my day'
p86
aS'could you please follow my insta at brandeno merino'
p87
aS'i followed u on insta and liked ur last video'
p88
aS'i wish i can meet u in person isn t ur musical ly kyleexum'
p89
aS'can you follow me'
p90
aS'ok'
p91
aS'hello'
p92
aS'hi'
p93
aS'hello'
p94
aS'hi kyle'
p95
aS'when did u start making musicallys'
p96
aS'hello'
p97
aS'if you follow my musically'
p98
aS'thank you'
p99
aS'thank you so much'
p100
aS'ight'
p101
aS'so can you follow and bff me'
p102
aS'can u follow me back'
p103
aS'that s cool i just wanted to say that you make amazing musicals and you are so funny your the best'
p104
aS'welcome'
p105
aS'hi kyle i m a huge fan and i think your super funny ilysm'
p106
aS'can i call you'
p107
aS'lol not fan girl so much but i can t believe i m actually texting u'
p108
aS'hi is this kyleexum'
p109
aS'hi'
p110
aS'i luv your musical lys they are so funny'
p111
aS'hey my name is grace and i love you musicallys they are so funny can you follow me gracegossman'
p112
aS'no problem'
p113
aS'the amazing work man love you man'
p114
aS'your welcome when i m feeling upset i just go watch ur videos to make me smile have a good day love you'
p115
aS'what s goooood'
p116
aS'my names kori and i have a musical ly it s called kori jo'
p117
aS'yo kyle man your musical ly s are so funny they like fire'
p118
aS'i was wondering if u could follow me on musically'
p119
aS'hi i know that you have a lot of fans and are busy but i am such a huge fan i think musical lys are so funny i always enjoy watching them the raping ones are funny too i remember one and i quote you never do anything around this house better wash those dishes better watch that mouth ok mom boy don t get an attitude it would mean a lot if you replied could you follow me on musically maybe'
p120
aS'i love your vines and musicallys your so funny'
p121
ag50
aS'you re videos always make me laugh so hard'
p122
aS'no'
p123
ag50
aS'thx i love your vids'
p124
aS'omg im a huge fan'
p125
aS'you are my favorite muser my question to you is who do you prefer drake or logic'
p126
aS'your welcome i can t believe you responded'
p127
aS'thank you for messaging me back'
p128
aS'kyle your really cool and i like your musicallys and ily and can we be bffs ily'
p129
aS'hi'
p130
aS'sup'
p131
aS'hey you are the best i am one of your fans'
p132
aS'already did'
p133
aS'kyle can u please follow me it eli manning with an eli manning pic'
p134
aS'hi kyle i m so excited to text u can i get a bff please i just wanna do at least musical ly with u'
p135
aS'ok luv u'
p136
aS'how are you'
p137
aS'sorry to interrupt but can you bff me on musicl ly'
p138
aS'being a inspiration for me'
p139
aS'omg i m such a huge fan'
p140
aS'no'
p141
aS'kk thx'
p142
aS'your'
p143
aS'ok thx'
p144
aS'i don t have instagram'
p145
aS'hi i m maya and i love ur musical lys'
p146
aS'hey kyle i love ur musicallys you re rlyyyy funny thx for letting us text u and i can t wait to hear more of ur raps they re lit hope u see this'
p147
aS'hey this is rly cool if you to do'
p148
aS'i dont have it'
p149
aS'yeah definitely'
p150
aS'hey'
p151
aS'ok'
p152
aS'hi kyle i love your musically s i hope you are having a good day your super funny'
p153
aS'probably not'
p154
aS'np'
p155
aS'question what was the purpose of this thing and what made you think of it btw plz follow me on musically star of the sky i m a big fan'
p156
aS'i m sorry i can t help'
p157
aS'when u search it up it said dabbwit lailah'
p158
aS'thank you i love you so much you are hilarious'
p159
aS'how old are you'
p160
aS'i love your musicals'
p161
aS'omg'
p162
aS'how long have you had musical ly'
p163
aS'that picture was of my friend'
p164
aS'your teacher rap made me laugh for a week because it was so true thank you for being super funny'
p165
aS'is this kyle exum from musical ly if so i m gonna say that ur funny and i m big fan of u'
p166
ag50
aS'ok btw i think u r awesome and u r funny u have swag ps u slay'
p167
aS'cool how old are you'
p168
aS'hey kyle what s up again'
p169
aS'hello'
p170
aS'your welcome'
p171
aS'hi'
p172
aS'ok'
p173
aS'love'
p174
aS'hi what s up'
p175
aS'u r one of my favorite musers'
p176
aS'hey i love your mom raps and all your parent vines they re so relatable'
p177
aS'i m your big fan i love all your musicallys there so relatable and hilarious'
p178
aS'i m not spam i m a fan i can t get to your other number because i m from uk so it costs money but thank you for letting your fans be able to contact you and risk yourself of getting random messages for your fans u are really funny and to think of these reap life situations it s really great thanks kyle from a fan'
p179
aS'i m literally ur biggest fan'
p180
aS'hey i just copy and pasted just cuz sorry'
p181
aS'ur amazing i love ur musicallys'
p182
aS'hi thanks'
p183
aS'thanks for the insta follow'
p184
aS'awesome i think it s super cool that you can do this with your fans i just wanted to say your videos are really funny and always put a smile on my face i hope you had a great day'
p185
aS'can u plz follow me because today s my birthday and my musical ly is javi savage'
p186
aS'will u bestfriend me'
p187
aS'really'
p188
aS'i love your videos soooo much your so funny and lit'
p189
aS'your awesome'
p190
aS'hi'
p191
aS'oops wrong number bye'
p192
aS'but if it wasn t an automated message omg i am like your biggest fan ever'
p193
aS'lol how many texts have you gotten'
p194
ag50
aS'ok'
p195
aS'what is your major'
p196
aS'hi i don t want to be one of those people who say oh follow me but it would be a really good idea it is ana awesome for musically'
p197
aS'okay'
p198
aS'ok will'
p199
aS'is it really u'
p200
aS'ok'
p201
aS'hi'
p202
aS'ok'
p203
aS'omg is it really you'
p204
aS'how did u become do famous'
p205
aS'hi'
p206
aS'u r welcome'
p207
aS'hi'
p208
aS'is your real name kyle exum or is that just a name you use on musical ly'
p209
aS'i m good do you have any siblings'
p210
aS'what are you doing'
p211
aS'k'
p212
aS'fan'
p213
aS'hi'
p214
aS'your videos are awesome'
p215
aS'hi bff me on musicly username is trevorz dirtbike'
p216
aS'is this kyle'
p217
aS'np'
p218
aS'ok'
p219
aS'hello'
p220
aS'did'
p221
aS'hey'
p222
aS'your welcome'
p223
aS'i love your musical lys and ur really relatable'
p224
aS'it would be so cool if you followed me'
p225
aS'hey i would like to know if you can do bffs because some of your'
p226
aS'hello are u making any new vids'
p227
aS'omg you responed tysm ly'
p228
aS'hi'
p229
aS'my name is francesca but you can call me frankee'
p230
aS'it s allbree join me on textplus send free text call any phone number reach textplus users around the world free get it http textplus me i'
p231
aS'hey kyle please answer imma huge fan'
p232
aS'ok'
p233
aS'hi'
p234
aS'hey it s christina i love your musical lys and u make me smile everyday with ur musical lys i love youuuu ur amazing and don t stop what ur doing'
p235
aS'hi'
p236
aS'what'
p237
aS'hi i can t believe this i am such a fan of your musical lys you are so funny if you can can you start request for future musical lys and mention people who requested it in your musical lys that would be wonderful i know i m asking for a lot but can you follow me lol i get if you don t want to but please it would mean the world to have my favorite muser follow me my musically is melon and i will be posting musical lys a lot i just deleted them because of difficulties i m sorry i m asking a lot thank you for being my favorite muser i love you'
p238
aS'sounds good'
p239
aS'i follow a lot of crowned people but you are my favorite'
p240
aS'hi you re really funny and i love your videos so much'
p241
aS'ok'
p242
aS'hi'
p243
aS'are you real or is this a computer'
p244
ag50
aS'hey'
p245
aS'ok'
p246
aS'your welcome thank you so much for responding you just made my day'
p247
ag50
aS'you'
p248
aS'btw lysm kyle your comedy is awesome'
p249
ag50
aS'hi kyle'
p250
aS'yes'
p251
aS'my username is khanjr'
p252
aS'hiiiiii i m a huge fan ok what s your favorite show'
p253
aS'cool that is cool that u just think of ways parents get mad and it come to your mind'
p254
aS'omg ok'
p255
aS'connorb'
p256
ag50
aS'your really funny by the way'
p257
aS'fav viner'
p258
aS'ok thx'
p259
aS'yeah'
p260
aS'i love your musicallys u are so relatable'
p261
aS'how are you'
p262
aS'hi kyle u have amazing videos'
p263
aS'hiiiiiui'
p264
aS'd'
p265
aS'hey kyle how are you'
p266
aS'thank you so much for answering can i ask you a question'
p267
aS'your musical ly videos are amazing'
p268
aS'hi my name is evelyn and my username on musical ly is v lyn many people say to go look at their profile but i really would appreciate it if you did please write me back if you get this and if you looked at my post or like one of mine and i will know'
p269
aS'omg i love your music lys'
p270
aS'i already am'
p271
aS'can you follow me on musical ly my accounts are katelynnbadillo katelynn'
p272
aS'ok'
p273
aS'spell check'
p274
aS'sorry man i can t my mom won t let me get it'
p275
aS'np i m so happy u answered me'
p276
aS'hey'
p277
aS'your my inspiration on musical ly who s your number one inspiration and how are you so funny'
p278
aS'omg hiiiiii my name is julia'
p279
aS'how do you come up with these ideas for musical lys'
p280
aS'same just chillin'
p281
aS'k thanks btw your musical lus are awesome'
p282
aS'hi what inspired you to make comedies'
p283
aS'can u follow my mussically account happy luve'
p284
aS'btw hi im a huge fan'
p285
aS'could you follow me on musically my account is ball r'
p286
aS'hi can you follow me on instagram please it would mean a lot to me'
p287
aS'i love your musiclys'
p288
aS'no problem man i just wanna say thank u'
p289
aS'ok'
p290
aS'hey kyle i love your vines and musicallys'
p291
aS'okay'
p292
aS'ok'
p293
aS'ok'
p294
aS'sweet your awesome i ve been watching all you videos on vine and musicly'
p295
aS'please i would love of you help me out'
p296
aS'no leave me alone'
p297
aS'hi kyle'
p298
aS'my name is julia'
p299
aS'your welcome and thx for responding no one ever famous does that'
p300
aS'i hope you respond'
p301
aS'hi'
p302
aS'your welcome'
p303
aS'sure man'
p304
aS'hi'
p305
aS'ok'
p306
aS'woooooow so how many people have texted you yet'
p307
aS'it s true you are in my opinion the best viner'
p308
aS'hello i m a big fan of you musically account i would love if i could have a bff i d cry for joy for a million years well i hope you have a good rest of your day'
p309
aS'which one do i text on'
p310
aS'thx so much i m a big fan and everything u post is so true i told all my friends so follow u'
p311
aS'will you'
p312
aS'my name is joaquin song master'
p313
aS'i was wondering for a follow back'
p314
aS'hi'
p315
aS'dude you don t have to text me u can text me whenever your free bro well my name is andrew'
p316
aS'hey'
p317
aS'they are so relateable and wow'
p318
aS'are you the real kyle'
p319
aS'i already follow you'
p320
aS'i m a girl'
p321
aS'ok'
p322
aS'welp hello'
p323
aS'musical ly'
p324
aS'hi'
p325
aS'hi i m a huge fan'
p326
ag50
aS'hey kyle i just wanted to let you know that i love your musicals they make me laugh every time i watch them i could be so sad and then watch your videos and they d make me so happy so thank you for that olivia'
p327
aS'can i have a bff crimsonfan is my user'
p328
aS'omg you r soooooo funny'
p329
aS'hey p'
p330
aS'okay i m fan of your musical ly s they are the best when you make them your own'
p331
aS'okay well i m glad you are making people happy'
p332
aS'can u follow me in musically'
p333
ag50
aS'are u the real one or just a fake person'
p334
aS'sure pal'
p335
aS'hi kyle i ur musical lys they are funny and relate do everyday life'
p336
aS'thank you so much i can t believe i m actually talking to you'
p337
aS'hi is this kyleexum if so i was wondering if you could bff me please i know that you probably get asked this a lot but i would appreciate it there is nothing special about me i am not sick no one died but i am just a huge fan thanks lauren'
p338
aS'if you want to follow me my username is ty the greatt'
p339
aS'okay'
p340
aS'hi kyle i m amber but people call me am i m a huge fan your so funny'
p341
aS'i don t have instagram sorru'
p342
aS'what do u think inspired u the most'
p343
ag50
aS'hi kyle i saw your musicly about this number and i just wanted to tell you that you are really funny and always make me smile'
p344
aS'your so funny'
p345
aS'hello'
p346
ag50
aS'i m a fan'
p347
aS'my mom wont let me get insta'
p348
aS'okay thanks'
p349
aS'hi kyle i love your musical lys and ur sooo funny i flipped when u made me bff ur my fav muser'
p350
aS'ok'
p351
aS'yeah no problem so wyd'
p352
aS'hi kyle'
p353
aS'paige conn'
p354
aS'can u plz bestfriend me my muser is miketheflight'
p355
aS'is this really kyle exum'
p356
aS'hi my name is anaiyah'
p357
aS'bff me'
p358
aS'plz answer me'
p359
aS'okay so what s up'
p360
aS'ok thanks'
p361
aS'hi'
p362
aS'hi'
p363
aS'i know you won t but my phone is about to die plz respond'
p364
aS'i already am'
p365
aS'i think ur an awesome muser and i hope u can respond to me'
p366
aS'you re funny'
p367
aS'its raplikeaboss from musically'
p368
aS'hi'
p369
aS'no problem'
p370
aS'hello is this kyle exum'
p371
aS'how old are you'
p372
aS'oh wow i m stupid ur insta is on ur page oops'
p373
aS'hi you don t have to respond but if you at least look at it that will help i know your busy so answer other people before me if you have to thanks'
p374
aS'hi i love all of your videos'
p375
aS'hii'
p376
aS'hello'
p377
aS'ok'
p378
aS'hi'
p379
aS'hiiiii i love your musical ly s you re the best'
p380
aS'send me a pic i want to know if it s actually u'
p381
aS'can you call me'
p382
aS'can u plz follow me on musical ly malaysia oquinn'
p383
aS'i m a big fan'
p384
aS'respond now'
p385
aS'hi'
p386
aS'ok'
p387
aS'hey kyle this is julianna and i just wanted to say that i m such a big fan you were the first viner i watched and the st person on musical ly you are super funny and i am glad that you set this up so i can actually talk to you well at least kind of i would be so so happy if you would respond and maybe even follow my musical ly or instagram my musical ly is julianna and my instagram is j bae'
p388
aS'how were you inspired to do them'
p389
ag50
aS'ok'
p390
aS'hi'
p391
aS'really'
p392
aS'get'
p393
aS'hey kyle i m a big fan of your vines and musical lys your awesome'
p394
aS'ok message this is awkward plz don t text back'
p395
aS'i have a question'
p396
aS'hey kyle your vines are hilarious and they are so relatable too i hope you have an awesome day and thanks for keeping me laughing on your vines'
p397
aS'do you use vine if so when did you start and why'
p398
aS'ilysm your so funny omg ah'
p399
aS'hi i like how you do those funny video some of them are actually true'
p400
aS'the rest of the vids were awesome keep it up'
p401
aS'hi'
p402
aS'hi'
p403
aS'hey i am i big fan of you please answer'
p404
aS'wassup'
p405
ag50
aS'yeah no problem'
p406
aS'what s good kyle you make some creative musical lys where did the ideas come from'
p407
ag50
aS'ok thanks'
p408
aS'ok thx'
p409
aS'your vids are great man'
p410
aS'k why do u love making funny musical lys'
p411
aS'ok'
p412
aS'ok'
p413
aS'if you do not follow me i will unfollow you and i will cry'
p414
aS'i m a huge fan'
p415
aS'follow me trinbooboo'
p416
aS'yeah man'
p417
ag50
aS'hi'
p418
aS'sure'
p419
aS'omg thx so much'
p420
aS'hi'
p421
aS'aye'
p422
aS'it means a lot to me'
p423
aS'are you able to reply'
p424
aS'hi'
p425
aS'thank you so much im such a huge fan'
p426
aS'hey kyle when i typed in the phone number it turns out it s the same area code as my grandparents by any chance are u from connecticut'
p427
aS'oh ok ahhhh i can t belive this is happening'
p428
aS'ok great'
p429
aS'k'
p430
aS'just did rn'
p431
aS'hi ur my favorite muser ever ur skits r hilarious and ur such a good rapper'
p432
aS'hi'
p433
aS'hey kyle i really like your musiclys and i think its amazing that you come up with all of these ideas cause there truly amazing'
p434
aS'hey its brandy'
p435
aS'hello'
p436
aS'hey kyle my name is mary and i think you re super funny i just wanted to ask you what it was like whenever you got your first feature on musical ly just curious maryellasanders p s i love your pok mon go musical i can so relate'
p437
aS'sure'
p438
aS'and also thanks for the bff it really made me happy i was screaming when you bffed me i was so excited'
p439
aS'hey'
p440
aS'the one who does comedy on musically right'
p441
aS'my name is lovely queen love'
p442
aS'hey is this kyle exum from musically if it is i just want to say i love your musicallys so much they are honestly amazing my musically is musiclover i will try to expect u if i don t then i m sorry i m really shy and i only like people i know in person to follow me i know your not getting any hate and that s good but in the future if u do remember this don t let haters take u down u are an amazing person and be who u are sorry for the long message there so many things i want to say because i have so many nice things to say about u if u know what i mean have an amazing night day afternoon whatever time it is when your reading this'
p443
aS'your girl a thot'
p444
aS'please answer'
p445
aS'ok thx'
p446
aS'hey i think you re really funny and a lot of your things are relatable and also i was wondering if you could follow me on musical ly if you do its pierce'
p447
aS'bff'
p448
aS'so cool'
p449
aS'omg is this really you hey kyle what s up just wanted to say hi and you are my fav muser out there i watch ur music lys all the time they are so good you probably won t text back but if you do that would mean sooooooo much to me'
p450
aS'thank you and you also say awesome'
p451
aS'can u follow or na'
p452
aS'hi i follow you on musically your funny'
p453
aS'i don t have one'
p454
aS'and btw your musicallys are so funny'
p455
aS'hi'
p456
aS'don t have instagram sorry but your my fav muser'
p457
aS'ok'
p458
aS'ok'
p459
aS'heyy i love you so much'
p460
aS'ok'
p461
aS'hey is this kyle'
p462
aS'thanks for responding'
p463
aS'do u like ur fans'
p464
aS'hey kyle'
p465
aS'ok'
p466
aS'call me'
p467
aS'your welcome i like the one you just posted there all so relatable'
p468
aS'omg you reaponded i follow you on musical ly and instagram'
p469
aS'hi i m a huge fan of your vines and musicallys my favorite musically is the back to school commercials'
p470
aS'heyyy haha i just wanted to let you know i m a really big fan of your videos and that i think you re hilarious feel free to follow me lol rockstarcamille'
p471
ag50
aS'ok'
p472
aS'i can t stop wacthing it'
p473
aS'and i like ur mom raps there are so hilarious'
p474
aS'because i got in trouble with my insta'
p475
aS'thank you i love your musicallys and your instagram post'
p476
aS'hey'
p477
aS'my account name is ems yaa'
p478
aS'hello'
p479
aS'ok so what is ur fav color'
p480
aS'ok'
p481
aS'it s me thebosscreper'
p482
aS'hi i love your musical lys they make me laugh every time i see them'
p483
aS'hi again'
p484
aS'good job'
p485
aS'i also wanes to say could i get a bff on musical ly it would mean the world ilysm btw ur soooooooo funny'
p486
aS'ok'
p487
aS'love so much'
p488
aS'hi'
p489
aS'oh my gosh thank you'
p490
aS'your musicals are hillarious by the way'
p491
aS'hi'
p492
aS'hi'
p493
aS'i m mason'
p494
aS'love your musical lys i wish i were as funny as you'
p495
aS'still got to talk to you'
p496
aS'is it really you'
p497
ag50
aS'hi'
p498
aS'ur welcome'
p499
aS'keep up the good work man'
p500
aS'hi is this dan'
p501
aS'hi'
p502
aS'holy crap this is so cool'
p503
aS'where do u live'
p504
aS'wesome'
p505
aS'hey omg i m a big fan of yours like seriously you are really funny and lol i can t believe you gave your number out'
p506
aS'well u dont have to'
p507
aS'and they are pretty relatable too that s so cool'
p508
aS'so how does it work is the number or'
p509
aS'omg i m a big fan'
p510
aS'can u follow me back i m kelsea'
p511
aS'do u have time to talk btw my name is juliana but u can call me j'
p512
aS'your so funny you make me laugh when i m sad'
p513
aS'ok omg love you'
p514
aS'you do a good job because no other muser s do that'
p515
aS'hi'
p516
aS'i hope u see this'
p517
aS'i m jordin and i m a big fan'
p518
aS'omg i m one of your biggest fans ever'
p519
aS'ok'
p520
aS'okay'
p521
aS'my name is kyle'
p522
aS'ight'
p523
aS'omg can u plz follow me on musical ly at kamya plz'
p524
aS'omg thankyou ilysm'
p525
aS'test'
p526
aS'all of this i am really happy'
p527
aS'hey kyle my name is jordan and i m from georgia i watch almost all of your musicallys they are amazing just like you you make me laugh at the worst times so i just want too say thank you and i love you and please bff me jojodean thanks i love you'
p528
aS'ight'
p529
aS'hiii'
p530
aS'muser plz respond'
p531
aS'hi'
p532
aS'hey i really like your videos you do an amazing job keep up the hard work'
p533
aS'i m a huge fan'
p534
aS'yay that s awesome i was wondering if u could plz follow me'
p535
aS'just wondering i know your busy but did you read my um text yet'
p536
aS'i recommended you to someone else and now they follow you on just about every social media you have'
p537
ag50
aS'what s ur favorite superhero'
p538
aS'hi kyle i love your musical ly videos so much'
p539
aS'hey kyle you make amazing vids'
p540
aS'thanks kyle'
p541
aS'follow as well and please do a duet it would mean the world to me it would be a birthday gift'
p542
aS'can u plz respond when ur free'
p543
aS'u don t have to'
p544
aS'daisy'
p545
aS'no problem'
p546
aS'thanka'
p547
aS'i love your musicllys'
p548
ag50
aS'do you mind following me on musically'
p549
aS'hi can you please repond im a really big fan and i really love you so much your awsome funny and also can you follow me on musically princess marissa bff'
p550
aS'please answer me'
p551
aS'omg hi'
p552
aS'omg is this kyle'
p553
aS'sure'
p554
aS'okay'
p555
aS'no problem so when did you start making videos'
p556
aS'hey big fan'
p557
aS'xoxoxoxo'
p558
aS'hey'
p559
aS'kyle hey hows life'
p560
aS'love your videos so much'
p561
aS'okay hi i m shing rue lin age and i just think you re really funny and pretty cute'
p562
aS'can you follow me on musically it s itztantheman'
p563
aS'ok'
p564
aS'hey'
p565
aS'too'
p566
aS'i dont have an instagram sorry but if i ever do get one i will'
p567
aS'hey kyle'
p568
aS'can you bff and follow me on musically abbyecowan'
p569
aS'i know that they are like people texting u but u are so funny and cool please do a duet or give me a shoutout name parker davis'
p570
aS'omg omg omg'
p571
aS'hello'
p572
aS'this'
p573
ag50
aS'hey kyle i just wanted to say how much i love your musicallys they make me laugh so hard and i love watching them over and over again i think it s rly cool how you make whatever videos you want and don t care what ppl think hope you have a good day it s ok if you don t respond i just thought why not give it a try'
p574
aS'hi'
p575
aS'sorry cant have one'
p576
aS'omg i can t believe you responded i m so happy thank you so much maybe we could talk sometime'
p577
aS'hey bro i m dion and i love your videos on musically they are my favorite i was wondering if you could follow me on musically dion mater thxs bro'
p578
aS'thx my dad is in the army so sometimes i get sad watching your musical lys make me happy pls call me'
p579
aS'hey kyle i m one of you re fans on musically i m kiley valentine and i have you re post notifications on because everytime i watch you re vids i laugh so hard i hope you respond and thx for making my day everyday especially when i m sad thx sooooo sooooo much i m happy to get to tell you this and plz don t stop being funny'
p580
aS'can you bff me on music ly carissa campbell'
p581
aS'hey kyle'
p582
ag50
aS'idk i m just curious'
p583
aS'it is ballin life i dont have a snap or ig or facebook or twitter or anything just musically'
p584
aS'can i make a duet with you'
p585
aS'ok'
p586
aS'i love your sketch comdies my question is how did you find musically'
p587
aS'is this actually you'
p588
aS'k'
p589
aS'so hi'
p590
aS'ok thanks'
p591
aS'hey kyle i m one of your fans i can t wait for the mom rap lol'
p592
aS'ok'
p593
aS'already did'
p594
aS'can u follow my musical ly trublu ur one of my favorite musers'
p595
aS'thank you so so much for replying'
p596
aS'you are awesome because you are the best thing that has happened to me'
p597
aS'thanks hi kyle this is caroline i m one of your biggest fans ever you are so funny to me and i love it my musical ly is caroline gray you ve probably seen me like all of your musical lys because i love your account and all your comedy skits i would love it if you could bff me i love how you come up with your skits you are a great actor to thank you so much for making me laugh please answer'
p598
aS'omg hi your talking to me this is my dream'
p599
ag50
aS'hi i l ve your mudical lys they re so creative and funny'
p600
aS'hey i love your musical ly s you re really funny haha and thanks for bffing me'
p601
aS'hey kyle exum i m a huge fan it would mean the world to me if you could follow me give me a shout out and do a duet with me you make me laugh every day with your halarious sense of humor i look up to you and hope to be funny like you snazzleberry boomer'
p602
aS'who are you'
p603
aS'why did you respond to my snapchat and i just wanted to say you made'
p604
aS'your welcome'
p605
aS'i saw your musically with the respomding thing'
p606
aS'hi i love u sooo much i love your musicallys and you are hilarious and u have great humor my name is heidi and musically username is heidi'
p607
aS'welcome'
p608
aS'hi'
p609
aS'you are so funny and cool'
p610
aS'i already followed you at instagram'
p611
aS'hi kyle'
p612
ag50
aS'oh btw this is brah itz madison off of musically'
p613
aS'is this real or nah'
p614
aS'omgoodness is it really you'
p615
ag50
aS'yeah sure'
p616
aS'ok i love your musicallys'
p617
aS'cool'
p618
aS'ok could u follow me on musically i would be so happy'
p619
aS'hi kyle i really like the content you create and you make me laugh everyday we must live close because we both start with in our phone numbers'
p620
aS'ok'
p621
aS'i can t believe u replied'
p622
aS'can you follow me or give me a bff plz'
p623
aS'hi'
p624
aS'and can i please get a bff from you'
p625
aS'your welcome do u think ik everyone is asking this but can i get a bff my account is aarin krawczyk'
p626
aS'if u don t answer it s gucci'
p627
ag50
aS'hey my names drelynn'
p628
aS'ok thx so much'
p629
aS'u inspire me a lot'
p630
aS'just uploaded a musically'
p631
aS'sup'
p632
aS'but can u follow my musically'
p633
aS'k'
p634
aS'np make more musically your really funny and make my day'
p635
aS'hi kyle your so funny i love your sprit and you musical lys you make my day'
p636
aS'what'
p637
aS'hi'
p638
aS'i love you kyle ur so funny'
p639
aS'my is fst laurent'
p640
aS'hello'
p641
aS'omg omg i m such a big fan of yours'
p642
aS'i did last time'
p643
aS'ok that sounds good'
p644
aS'oh cool can u bff me on musically'
p645
aS'hey'
p646
aS'hey kyle'
p647
aS'what do you mean'
p648
aS'hi'
p649
aS'think that it s so amazing to give your fans your number it d'
p650
aS'you re hilarious'
p651
aS'sure'
p652
aS'my name is brianna'
p653
aS'u have inspired me to do musical ly'
p654
aS'oml im such a big fan you look like a fun friend to hang with my name for musicl ly is rainbowgirl i hope you can check me out'
p655
aS'i love all of your musicallys your so funny'
p656
aS'plz reply'
p657
aS'ok thank u soo much'
p658
aS'so it s been exactly an hour so can you talk'
p659
aS'ok thanks for responding automatic message'
p660
aS'this is me btw'
p661
aS'hi my name is grace and i d just like to let you know how much your vines mean to me i mean your amazing you make me laugh even when i m down thank you for that'
p662
aS'i love you vines and musical lys'
p663
ag50
aS'how r u'
p664
aS'oh that s awesome well i hope it works out for you thanks for responding'
p665
aS'ok'
p666
aS'what is your favorite tv show'
p667
aS'btw how do you come up with lyrics and beats so easily'
p668
aS'okay'
p669
aS'omg u replied'
p670
aS'hello'
p671
aS'ok'
p672
aS'ok'
p673
aS'can u drive'
p674
aS'can u plz follow me'
p675
aS'you are my favorite muser and i m sorry for spamming you'
p676
aS'on musically'
p677
aS'ok'
p678
ag50
aS'omg hiii'
p679
aS'yo wassup'
p680
aS'too'
p681
aS'ur so funny'
p682
aS'ok'
p683
aS'i ll already do'
p684
aS'hi'
p685
aS'what s your favorite color'
p686
aS'nice man keep up the good work i m a big fan'
p687
aS'i m not expecting you to answer but i look up to you'
p688
aS'bbiegs is my username'
p689
aS'hi kyle'
p690
aS'siblings family and parents me and my friend maite dancingm are'
p691
aS'hi how are u'
p692
aS'and always make me laugh so thanks for that'
p693
aS'already did'
p694
aS'i already do'
p695
aS'hi im a huge fan and i just wanted to say that your hilarious and i love ur musical lys have a great day'
p696
ag50
aS'that s insane'
p697
aS'no thank you'
p698
aS'hey'
p699
aS'hi i am a huge fan can you follow me on musically'
p700
aS'hey'
p701
aS'you welcome thank you for responding'
p702
aS'i meant an instead of and'
p703
aS'what'
p704
aS'omg am i dreaming'
p705
aS'what is your bay job'
p706
aS'hey this is ruben'
p707
aS'cool'
p708
aS'hi'
p709
aS'ok'
p710
aS'and ur really good at making people laugh'
p711
aS'what'
p712
aS'wassup'
p713
aS'would i get a follow back'
p714
aS'how old are you'
p715
aS'hi'
p716
aS'so how is life'
p717
aS'hey kyle'
p718
aS'i liked like almost all your videos'
p719
aS'omg hi your amazing'
p720
aS'hi i am one of your followers and i like all your videos they are always super good and hilarious if you could text me back i would be the happiest person in the worl'
p721
aS'ok is this an iphone'
p722
aS'it would mean so much of i got a follow your videos are so funny just incase lovelylove'
p723
aS'hey'
p724
aS'hi'
p725
aS'hi omg'
p726
aS'hi i follow u on musical ly'
p727
aS'yes i will right n'
p728
aS'your choice'
p729
aS'i know this is our of nowhere but what s your favorite emoji'
p730
aS'kool thanks man i love you are awesome'
p731
aS'anwser plz'
p732
aS'hey kyle ur a funny guy thanks for all you do'
p733
aS'ok'
p734
aS'yeah sure'
p735
aS'it s me jack again'
p736
aS'hi fren hi yes ok i have like no idea what to say just hi i really like your musicallys xd k byee'
p737
aS'hey it would make my year if you would respond i know you have so many fans but i litterally your biggest fan'
p738
ag50
aS'yay ok thank you'
p739
aS'i love your videos you are really funny bro stay cool'
p740
aS'hey big fan mann how do you come up with so many skits'
p741
aS'hey is this kyle'
p742
aS'yea no problem'
p743
aS'can u follow me'
p744
aS'reply help to opt out florence korsah hi'
p745
aS'ok omg hi i am a huge fan of you please respond to this and i just had a question can you follow me and did your parents actually do that to you thank you so so much for responding back i love what you do keep doing and do you do youtube i really wanna know if not try it out i think you ll be really good at it'
p746
aS'hi kyle you are soooo funny and i love watching your videos it would be great if you could bff me on musically but i understand if you don t want to because everyone is probably asking just in case my username is dr i have one question how do you come up with your originals do they like spontaneously come to you or something please try to respond'
p747
aS'just want to say thanks for putting a smile on my face everyday your musical lys make me laugh soooo much'
p748
aS'hi'
p749
ag50
aS'cool'
p750
aS'hi'
p751
aS'i already am'
p752
aS'omg hi'
p753
aS'hey i m a big fan you are really funny and it would mean a lot of you could respond thanks'
p754
aS'no problem there awesome'
p755
aS'i am'
p756
aS'awesome i love your videos'
p757
aS'yay'
p758
aS'ok i just can t believe i m really talking to u'
p759
aS'hi is this kyle'
p760
aS'ok'
p761
aS'hey i love you musicallys though'
p762
aS'your welcome'
p763
aS'kyle exum can you bff me on musical ly simeron'
p764
aS'my user on musically is mmaulik plz bff me'
p765
aS'was that you or does it send that message to everyone at first'
p766
aS'hey my name is sierra and your videos make me laugh every day i stress very easily and i just wanted to thank you for making me laugh and smile every day and even if people hate just keep doing what your doing because you are making an impact on people s lives thank you'
p767
aS'i just followed you'
p768
aS'hello'
p769
aS'how are you doing'
p770
aS'ok'
p771
aS'cool'
p772
aS'hi kyle'
p773
aS'i can t believe i m talking to u in person lol'
p774
aS'hows your summer been so far'
p775
aS'you re welcome'
p776
aS'or bff'
p777
aS'follow meeeee'
p778
aS'hey'
p779
aS'omg can you like shout me out on musically my username is breelaramore'
p780
aS'you take all the time you need your awesome'
p781
aS'np'
p782
aS'ok thx'
p783
aS'ok'
p784
aS'hi'
p785
aS'piz follow me'
p786
aS'my musically is morganlafayette'
p787
aS'hi'
p788
aS'hi kyle i hope you see this you really help me be happy again after my dad died so thanks if you see this'
p789
aS'okay'
p790
aS'thanks man u are so funny'
p791
aS'this is real like real real'
p792
aS'kyle how do u come up with the idea to make your musical lys'
p793
aS'hi kyleexum i sent a message to the number u set up on musical ly and it told me i could message u directly'
p794
aS'hey'
p795
aS'ilysm'
p796
aS'who is your favorite muser'
p797
aS'hi kyle'
p798
aS'please respond'
p799
aS'no problem'
p800
aS'no probs'
p801
aS'ok'
p802
aS'how old r u'
p803
aS'you re super funny'
p804
aS'im your biggest fan can you please follow me on musically my musically is karounga'
p805
aS'hi'
p806
aS'thank you so much for making funny videos and making smile laugh every day also one question what do you love most about your fans'
p807
aS'can u bff me or follow me on musically i follow u'
p808
aS'hi'
p809
aS'i m spamming you with like right now'
p810
aS'um'
p811
aS'your'
p812
aS'you are my favorite person on musical ly'
p813
aS'hi'
p814
aS'where do you come up with your videos'
p815
aS'hi i m rayven'
p816
aS'ur awesome'
p817
aS'hi kyle my name is macey your music lys are so funny and relatable i love watching them it would be so cool if you followed me my username is macey i am not private'
p818
aS'hi kyle i just wanted to say that you are the most funniest person ever everytime i see your vines and musical lys i crack up'
p819
aS'ok'
p820
aS'i m a big fan of u i love your musicallys'
p821
aS'omg hi ur a really big inspiration to me u cheer me up when i m down all the time and it is my birthday so it eould make my day if u texted me back a simple word would make me happy'
p822
aS'my name is bre'
p823
aS'are you real cause i m about to flip'
p824
aS'hi'
p825
aS'love your music ally s'
p826
aS'say i think you re so funny and always seem to make my day i m so'
p827
aS'can you follow me on musical ly my name is cadence you don t have to text back but i wanted to let you know you make me laugh when i m sad and make my day x better'
p828
aS'hi my name is allie i was wondering what things i m allowed to text you'
p829
aS'your welcome'
p830
aS'it s my birthday and it would make my day of u texted me'
p831
aS'hey kyle exum can you text me on musically please my name is youtuberecorder in musically'
p832
aS'it s raiden player'
p833
aS'hi'
p834
aS'omg ok'
p835
aS'i love you'
p836
aS'ok when you do can you follow me on snapchat please at emsanders'
p837
aS'please reply'
p838
ag50
aS'i love the skits you do on musical ly'
p839
aS'hey bro keep up the good work'
p840
aS'i followed you'
p841
aS'are you an automatic machine'
p842
aS'okay i can t believe i m actually talking to u'
p843
aS'can u follow me'
p844
aS'ok'
p845
aS'i love you'
p846
aS'hi i am toxinpvpz you are hilarious i love all your videos'
p847
aS'hi im such a huge fan i live your funny musicallys'
p848
aS'its jumpin like jordan'
p849
aS'hi'
p850
aS'your videos'
p851
ag50
aS'can you make me bff on musically'
p852
aS'so are you kyle are not'
p853
aS'hi'
p854
aS'i love your video so funny'
p855
aS'okay i ll be more serious i m sure you heard this from everyone but you are seriously hilarious and you make awesome musicals'
p856
aS'hey kyle your really really funny'
p857
aS'thanx'
p858
aS'hi'
p859
aS'it s gymnast'
p860
ag50
aS'i follow you on misicly and i am a big fan'
p861
aS'kyle you are also an inspiration to me and everyone keep it up love u man'
p862
aS'wyd'
p863
aS'kyle hey'
p864
aS'ok'
p865
aS'oh you responded omg hi'
p866
aS'hey man i just wanted to say i really love all your musicals and they are really funny to watch so just keep it up'
p867
aS'i just gotta say that your musicallys are so funny there the best'
p868
aS'send me a picture'
p869
aS'i think your really funny and i have tried to like all your musically'
p870
aS'hey kyle this is danielle and i m one of your big fans i hope you can respond to this love you'
p871
aS'my musical ly is jmoney and my instagram is jgotgame'
p872
aS'thanks'
p873
aS'omg hi'
p874
aS'i love your musical ly'
p875
aS'oh my gosh'
p876
aS'hi kyle i absolutely love your musical lys i think your absolutely hilarious keep on making them you make my day'
p877
aS'omg is this really u'
p878
aS'your'
p879
aS'hi'
p880
aS'wn to earth'
p881
aS'hiii'
p882
aS'hi kyle my name is zoey and i just wanted to tell you that i highly appreciate your vines skits and they always lift me in a good spirit'
p883
aS'yo kyle idc if you don t see this but i love all of your vines they are so funny and original love your work'
p884
aS'ok'
p885
aS'and i would love to be like you someday my musically is danny boi if you wanted to follow me or check out my musicals thanks'
p886
aS'hi you are so funny'
p887
aS'oml is this actually kyle i love your vines so much you make me laugh so hard'
p888
aS'hi i love you so much'
p889
aS'hi'
p890
aS'omg hi you are realy funny i m bobby'
p891
aS'i dont have instagram'
p892
aS'i love u so much i think ur so funny and it would mean the world if u responded'
p893
aS'cool'
p894
aS'hi'
p895
aS'how is it knowing you make so many people laugh'
p896
aS'i love your musicly'
p897
aS'are you from the real musiclys'
p898
aS'ok thanks i love your musical ly s'
p899
aS'hey'
p900
aS'what s your favorite color'
p901
aS'omg thank you so much'
p902
aS'omg hiiiii'
p903
aS'btw ily'
p904
aS'best'
p905
aS'i love your videos'
p906
aS'ok of course'
p907
aS'already am'
p908
aS'im bored jus layin in bed'
p909
aS'i love your videos on musical ly they re sooooo funny one of my favorites is the pokemon go one please respond'
p910
aS'hey kyle love your videos so much hope your having a great day'
p911
aS'i just wanted to say your awesome'
p912
ag50
aS'i did but now u should follow me'
p913
aS'try to respond to your messages when i can and it said to go to'
p914
aS'well if it s really u then follow me on musical ly djbryant to prove it'
p915
aS'can u talk now'
p916
aS'thank you'
p917
aS'sup im a really big fan'
p918
aS'hey can u follow me plz and bff me plz it would be awesome'
p919
aS'okie dokie'
p920
aS'hey kyle hope u see this and if can i get a shout out on instagram please and have a great day'
p921
aS'okay dope'
p922
aS'omg'
p923
aS'hello i am one of your biggest fans i love you so much and i am so happy that you set up this phone number i hope you recieve this kailyn'
p924
aS'and i rlly wanna talk'
p925
aS'respond lol'
p926
aS'ok'
p927
aS'omgg hiiii please respond whn yhu can'
p928
aS'welcome your cute and funny'
p929
aS'hi can you follow me on musicly at mikem m'
p930
aS'yay'
p931
aS'no problem'
p932
aS'i know that a lot of people might say the same thing but i m saying this from the bottom of my heart'
p933
aS'hi'
p934
aS'you make my day every time i watch your videos'
p935
aS'i don t have ig'
p936
aS'what country do u live in i live in savannah georgia'
p937
aS'can you marry your bff'
p938
aS'hi kyle i love ur musicallys ur so funny and make me laugh every time i watch them if u could do a live stream one day that would be really cool'
p939
aS'thank you so much'
p940
aS'omg thank i love ur musically they are so funny thank you for responding'
p941
a.