(lp0
S'hey morgan i m a huge fan of yours your musical lys are awesome and you re very beautiful it would mean the world to me if i got a reply back love you'
p1
aS'yes'
p2
aS'can u follow me or bff me'
p3
aS'hey morgan my name is jasmine and i love your musical lys so much'
p4
aS'yes'
p5
aS'hi i am a huge fan of yours'
p6
aS'hi'
p7
aS'will u follow me please so that i can duet with uor give a shouout please its ok if u dont no one likes me and i get bullied'
p8
aS'ok'
p9
aS'cool i will go check it out thanks'
p10
aS'ya plz bff me ellieee warrennn'
p11
aS'yes'
p12
aS'yes'
p13
aS'omg okay thanks so much'
p14
aS'ya'
p15
aS'yes'
p16
aS'awwww'
p17
aS'hey'
p18
aS'good'
p19
aS'yeah'
p20
aS'just saying u look really pretty in your vids'
p21
aS''
p22
aS'what pet store were u at'
p23
aS'oh okay your so pretty btw'
p24
aS'good'
p25
aS'thanks'
p26
aS'yeah'
p27
aS'i m a guy'
p28
aS'it s great'
p29
aS'hey i love your musicallys'
p30
aS'no'
p31
aS'hey i just want to say that you re so gorgeous and i love your musical lys i wish i could be like you'
p32
aS'always'
p33
aS'will there be lipstick in it too'
p34
aS'good haha went to the mall'
p35
aS'u r amazing u r really pretty'
p36
aS'no thanks'
p37
aS'i don t use makeup sorry'
p38
aS'yes'
p39
aS'yea'
p40
aS'good i just got back from nyc'
p41
aS'yes'
p42
aS'ok'
p43
aS'i saw it'
p44
aS'yes i m interested'
p45
aS'ok thx'
p46
aS'how much is it'
p47
aS'cool deal i lovee your musical lys they are really good'
p48
aS'i love your musicallys they re so good and entertaining to watch what was your reaction when you got featured'
p49
aS'um how much is it'
p50
aS'can u show me a pic of u so i know you are real'
p51
aS'ok'
p52
aS'omg he morgan my name is hudson i am year old boy and i live in california i used to talk to athena lol i felt so cool because i used to text your best friend lol um but you are really pretty and i love your musical lys i love you so much btw i am your biggest fan lol being straight up'
p53
aS'hey'
p54
aS'yes sounds great'
p55
aS'you re so welcome'
p56
aS'hey'
p57
aS'so wyd'
p58
aS'you are so pretty'
p59
aS'love you too'
p60
aS'cool'
p61
aS'hey'
p62
aS'luv u too ur musicallys are life btw'
p63
aS'yes'
p64
aS'hi'
p65
aS'hello'
p66
aS'hi'
p67
aS'hey morgan'
p68
aS'hi'
p69
aS'but thanks for asking'
p70
aS'that s so cute and good how about yours'
p71
aS'can i'
p72
aS'call'
p73
aS'but it s worth it'
p74
aS'yes'
p75
aS'that s nice'
p76
aS'hey'
p77
ag22
aS'that s awesome and yes'
p78
aS'omg it is you this is so crazy i love your musical lys and your so beautiful'
p79
aS'hi'
p80
aS'and can you do me a tiny favor'
p81
aS'how much is it'
p82
aS'hi morgan i love u'
p83
aS'it was good thx for asking what else did you do'
p84
aS'good'
p85
aS'sure'
p86
aS'can you follow me on musical ly'
p87
aS'and np love you'
p88
aS'hi i saw it musical ly that u were texting fans i m a huge fan'
p89
aS'hi morgan but right now i am feeling very down with a lot it would really make my dad if you have made a follow back'
p90
aS'could we maybe facetime sometime'
p91
aS'who is this'
p92
aS'yes'
p93
aS'i ordered it'
p94
aS'who is this'
p95
aS'when i saw it on the picture i asked my mom and she said yes'
p96
aS'hey'
p97
aS'you welcome oh its ok can you follow me on musically at pyg babyjordan and can we be best friends'
p98
aS'no problem your an amazing person u deserve support'
p99
aS'yes'
p100
aS'yes'
p101
aS'omg i love all your musicallys they are so good'
p102
aS'he i m following u on musicl ly i just looked at your pace and it said to text your phone'
p103
aS'yes i will love to'
p104
aS'hey this would be so awesome if u texted back i love u u inspire me a lot i have u on notifications on musicly it would be a dream come true if u gave me a bff'
p105
aS'that s so cute'
p106
aS'and yes my day was good'
p107
aS'good'
p108
aS'yes i do'
p109
aS'hello'
p110
aS'hey i love your musically s'
p111
aS'yes'
p112
aS'yess'
p113
aS'cool'
p114
aS'yes i am'
p115
ag22
aS'boring haha'
p116
aS'yes'
p117
aS'awe my day good thx for asking'
p118
aS'hey'
p119
aS'good oh my god i love you'
p120
aS'hey'
p121
aS'ok'
p122
aS'yes'
p123
aS'no'
p124
aS'what are you doing'
p125
aS'hi'
p126
aS'your welcome i can t believe i am actually talking to you'
p127
aS'good and that s totally adorable'
p128
aS'how old are u'
p129
aS'how was your day so far'
p130
aS'oh no i m not interested in buying it'
p131
aS'wyd'
p132
aS'it wad good'
p133
aS'yes'
p134
aS'good i got a hoverboard'
p135
aS'it was good and i love animals'
p136
aS'morgan'
p137
aS'hey'
p138
aS'how old are you'
p139
aS'hi'
p140
aS'yes'
p141
aS'hi i m a huge fan can u please add me on snapchat sophies'
p142
aS'yes'
p143
aS'ok thank you thats that s great'
p144
aS'yes'
p145
aS'yes'
p146
aS'wow i m'
p147
aS'yes'
p148
aS'yes i am very i trested how much does it cost'
p149
aS'thnx'
p150
aS'do you follow fans'
p151
aS'what s that for'
p152
aS'hi i m a fan from musically'
p153
aS'can i ask u a question'
p154
aS'good'
p155
aS'hi morgan'
p156
aS'yes'
p157
aS'will u do a live ly'
p158
aS'omg hey'
p159
aS'hiii'
p160
aS'sure wyd'
p161
aS'omg ur amazing i love ur musical lys soooo much'
p162
aS'btw me musical ly is princess t'
p163
aS'thx and ur welcome'
p164
aS'yep'
p165
aS'hi i m one of ur followers off of musical ly my name is cassi'
p166
aS'yes does it cost money'
p167
aS'yes please'
p168
aS'that coffee u had look good'
p169
aS'yea sure'
p170
aS'of course do u have an iphone'
p171
aS'thanks yeah ot was exensive'
p172
aS'hey'
p173
aS'is this really morgan'
p174
aS'go'
p175
aS'yea is this really morgan though'
p176
aS'no no thank you'
p177
aS'heyy'
p178
aS'morgan i love you so much'
p179
aS'sure'
p180
aS'it is very pretty but expensive and my mom won t let me wear that much make up so sorry but u are gorgeous'
p181
aS'u r my fav muser'
p182
aS'yes'
p183
aS'it s was good i was helping out with vacation bible school'
p184
aS'good how about you'
p185
aS'fr tho'
p186
ag22
aS'omg hi your musical lys are amazing i love you so much'
p187
aS'ilysm'
p188
aS'ilysm morgan ur so pretty asf'
p189
aS'you ilysm'
p190
aS'hi'
p191
aS'hi morgan'
p192
aS'how much is it'
p193
aS'ok'
p194
aS'is that petco and my day was fine how about yours'
p195
aS'can i ask u a question since your my fav muser'
p196
aS'yesss'
p197
aS'good i m going to a concert'
p198
aS'sure'
p199
aS'is it live a giveaway'
p200
aS'how old are you'
p201
aS'omg my day was pretty bad'
p202
aS'i might be interested'
p203
aS'yes of course'
p204
aS'preset good i m in austin playing golf'
p205
aS'bye'
p206
aS'you inspire me alot'
p207
aS'how do you get so much followers'
p208
aS'ok thank you'
p209
aS'yes i m interested'
p210
aS'that looks so good'
p211
aS'your'
p212
aS'awe so cute and my day was great'
p213
aS'yup'
p214
aS'u are one of my inspirations i can t believe i m actually texting you'
p215
aS'yes it does'
p216
aS'yes but does it cost money'
p217
aS'yes'
p218
aS'yes i am'
p219
aS'yeah'
p220
ag22
aS'hi this is nautika a big fan'
p221
aS'i m so happy you responded'
p222
aS'yes'
p223
aS'yes'
p224
aS'thx so much i would love to have it'
p225
aS'i am'
p226
aS'yes i m very interested'
p227
aS'hey i really love you but is this really you or were you hacked bc i m pretty sure you were hacked but ya'
p228
aS'good how was yours'
p229
aS'yes i am'
p230
aS'no i m to young to wear makeup'
p231
aS'yes'
p232
aS'be body posi'
p233
aS'awe how was your day'
p234
aS'is this morgan katherine'
p235
aS'heyy omg morgan i love you so much i love your musicallys so much it would mean so much to me if you texted back'
p236
aS'yeah i love how you do your makeup'
p237
aS'your such a role model to me and i hope that one day i can meet you your so pretty and seem super nice one of your biggest fans'
p238
aS'she would not put out her number'
p239
aS'i love you too'
p240
aS'hi i m your biggest fan'
p241
aS'no thanks but thanks for asking can you follow me'
p242
aS'omg'
p243
aS'good and yours'
p244
aS'you'
p245
aS'cool'
p246
aS'so perfect'
p247
ag22
aS'yep sounds good'
p248
aS'lol'
p249
aS'ilysm'
p250
aS'hey ilysm'
p251
aS'yassss that s great'
p252
aS'k'
p253
aS'okay thank you i can t wait to order it'
p254
aS'i m interested'
p255
aS'yes'
p256
aS'you are soooooo pretty omg'
p257
aS'idk what to say'
p258
aS'no i don t wear makeup'
p259
aS'thanks for the offer but i can t afford it'
p260
aS'hey'
p261
aS'is this morgankathrine from musicly'
p262
aS'yes i m interested'
p263
aS'yess you answered back thank you i love you too thanks for texting me back your super pretty too'
p264
aS'it was good what a cute guinea pig'
p265
aS'totally'
p266
aS'my user name is tbh fabulous'
p267
aS'yay'
p268
aS'good how was yours'
p269
aS'your welcome wanna do a duet'
p270
aS'hi i m such a big fan'
p271
aS'sorry but no thanks it looks really pretty tho'
p272
aS'is this actually morgan katherine'
p273
aS'no thanks thanks tho i do cheer and im a model so i have to wear certain types of makeup'
p274
aS'yes'
p275
aS'ok'
p276
aS'good wbu'
p277
aS'yea'
p278
aS'how much is it'
p279
aS'and my musically is valeria b'
p280
aS'good but i had cheer practice for hours'
p281
aS'morgan you may not see this but i really hope you do i was going through a really hard time in my life i didn t have any confidence in myself then i found your musical ly you gave me so much confidence you taught me to be me and not care what anyone else thinks you are so sweet i have never seen you be rude to anyone tho i ve also never seen you but you know what i mean and your gorgeous you seriously are so pretty and i love that you embrace your natural beauty i smile every time you post you are so amazing morgan and i hope you know that you are so inspirational to me you remind me it s ok to be funny it s ok to be silly you are on of my favorite people ever i love you so much morgan you are amazing never change because you are perfect ily ily ily ily ily ily ily ily ily ily ily youre so freaking gorgeous its my life goal to be you omg i want to facetime you so badly ily morgan pls ilyyyyy'
p282
aS'how r u'
p283
aS'hi morgan i love your musical lys i know you probably won t read this but your awesome and i love you ilysm ok idk what else i say bye'
p284
aS'hey'
p285
aS'ok thank you'
p286
aS'yes'
p287
aS'yes'
p288
aS'hi'
p289
aS'good and yours'
p290
aS'haha have you been getting a lot of messages'
p291
aS'yes'
p292
aS'omg i love you morgan your literally perfect omg omg'
p293
aS'by the way my names aaron'
p294
aS'replied ily'
p295
aS'i m interested'
p296
aS'can i get a bff or a follow please i love you so much'
p297
aS'pretty good wbu'
p298
aS'no thank you but thanks for the offer'
p299
aS'u are so pretty do not listen it the haters have a great day'
p300
aS'i love your musically'
p301
aS'thxxxxxx'
p302
aS'umm who are u cause you ve been texting me'
p303
aS'i dont reallt use makeup but my step mom will'
p304
aS'your welcome you are seriously perfect and made my day'
p305
aS'ok that is cool can you maybe bff me you are my fav muser'
p306
aS'no i m sorry but i don t want that you thank sorry'
p307
aS'ya'
p308
aS'hi'
p309
aS'yes how much would it cost'
p310
aS'yes please i thank you'
p311
aS'yes'
p312
aS'yes'
p313
aS'that s cool'
p314
aS'are you really talking to me'
p315
aS'hello'
p316
aS'yeah sounds cool can you follow me on musically'
p317
aS'hey'
p318
aS'great how was yours and how cuteeee'
p319
aS'yes'
p320
aS'yes'
p321
aS'maybe'
p322
aS'hi is this morgan katherine'
p323
aS'alright i ll check it out'
p324
aS'hey'
p325
aS'how did you start off on musicly like did you stick with the songs or funnier ones if that makes any sense'
p326
aS'yes'
p327
aS'what s your snap chat'
p328
aS'noooooooo'
p329
aS'can we do a duet'
p330
aS'morgan'
p331
aS'r u still here'
p332
aS'thanks for the update i hope you have fun and i ve been good how are you you should totally post some pics of the animals on your snap story'
p333
aS'sure thanks for texting me'
p334
aS'but tmo'
p335
aS'omg never mind'
p336
aS'heey can you plss bff me'
p337
aS'ok great thanks'
p338
aS'ok i think i m ordering tomorrow'
p339
aS'hey can u follow me'
p340
aS'yes totally'
p341
aS'i don t wear makeup sorry'
p342
aS'hi i m a fan on music ly'
p343
aS'yes'
p344
aS'because that d be awesome'
p345
aS'np can i get a bff on musical ly pls devon'
p346
aS'yes i am'
p347
aS'yes'
p348
aS'oh haha i got to pet a bunny yesterday'
p349
aS'yes'
p350
aS'i m such a big fan'
p351
aS'umm no this'
p352
aS'hi i am such a huge fan and i think your really beautiful and nice and i love ur musical lys'
p353
aS'i am interested'
p354
ag22
aS'i can t wear makeup i m not allowed'
p355
aS'hi im one of ur biggest fans i love the way u do ur music lys'
p356
aS'yes please i d love one but how much do they cost my moms running low on money lately and it s been hard'
p357
aS'sure i will always support you'
p358
aS'facetime please u call me'
p359
aS'yes but please answer me'
p360
aS'hello'
p361
aS'yes'
p362
aS'heyy'
p363
aS'hiii'
p364
aS'ok'
p365
aS'u r welcome honestly i don t know why anyone wouldn t'
p366
aS'yes'
p367
aS'yeah'
p368
aS'how much is it going to be'
p369
aS'hi'
p370
aS'yeah of course that would be great'
p371
aS'yes of course'
p372
aS'my day is good wbu'
p373
aS'mine was great'
p374
aS'okay please look at my musically xx emmthegemm'
p375
aS'i didn t call u but ok'
p376
aS'hey'
p377
aS'yes'
p378
aS'can u give me a shoutout in kinda new to this'
p379
aS'yes'
p380
aS'hi is this morgan katherine'
p381
aS'hey makayla parker'
p382
aS'hey i love your musicallys your so pretty'
p383
aS'i was wondering if you are going to vid con next year'
p384
aS'awe we are in the middle of moving'
p385
aS'yeah i am'
p386
aS'yes it does'
p387
aS'sure'
p388
aS'um no thanks sorry i m a dude'
p389
aS'totally thank you so much'
p390
aS'hi'
p391
aS'you are so welcome'
p392
aS'yeah how much is it'
p393
aS'omg i m freaking out please tell me this is u'
p394
aS'your right'
p395
aS'yes i so am'
p396
aS'omg thank you sm i m super excited to get it'
p397
aS'ok thanks i just want to make sure'
p398
aS'ok'
p399
aS'okay thank total much omggggg'
p400
aS'no i am a boy'
p401
aS'but i love you morgan your my inspiration'
p402
aS'good thanks for asking'
p403
aS'good'
p404
aS'is this morgan from musically'
p405
aS'hey'
p406
aS'you answered back'
p407
aS'yeah'
p408
aS'omg hi i saw this number on your musicly ly your so amazing and pretty and perfect and you seem so sweet to i know you probably won t ever see this but if you do i want to say thank you for makeing my days better stay shining and block out the haters colette fatis cbaby on musical ly'
p409
aS'ok'
p410
aS'yes'
p411
aS'hey'
p412
aS'yes'
p413
aS'where do u live'
p414
aS'hi'
p415
aS'so'
p416
aS'i live in fayetteville ar if u could go there for a meet and greet that would be awesome'
p417
aS'hey'
p418
aS'it was really good sounds like you had fun'
p419
aS'you should post more musicallys of you with black hair'
p420
aS'wil u add me on sc'
p421
aS'can u follow me on musiclly'
p422
aS'omg is this really you ilysm'
p423
aS'yes'
p424
aS'yes i m'
p425
aS'this is me'
p426
aS'ya i am but i need to ask my parents'
p427
ag22
aS'hey is this morgan katherine'
p428
aS'yes'
p429
aS'lol'
p430
aS'heyy'
p431
aS'u inspire me to do musicallys'
p432
aS'ok'
p433
aS'is this morgan kathern'
p434
aS'hey is this morgan i m a huge fan'
p435
aS'thanks'
p436
aS'i have no use for make up i ll leaving the makeup stuff for the women and thanks for the thought the way you applied the makeup on you made you looks gorgeous'
p437
aS'yea and hey'
p438
aS'awe that s such a cute hamster or a guinea pig i don t really studie that stuff'
p439
aS'i love that lip color btw'
p440
aS'it was great how are you doing'
p441
aS'it s cute'
p442
aS'yes'
p443
aS'really how about yours'
p444
aS'kk'
p445
aS'my day was great i am having a sleep over'
p446
ag22
aS'and i love your musically'
p447
aS'ur the prettiest on music ly'
p448
aS'great how was you day'
p449
aS'follow me and do a duet with me plz'
p450
aS'who s this'
p451
aS'aww they are cute and mine was great hby'
p452
aS'hi'
p453
aS'don t text me'
p454
aS'yeess'
p455
aS'your welcome'
p456
aS'ok thanks'
p457
aS'sounds awesome your gorgeous'
p458
aS'yeah go for it'
p459
aS'yes'
p460
aS'it s perfect now thank you so s so much for texting'
p461
aS'when i start musical ly i show it to my mom and i told her i want be like her and my mom say your never can be like her and if you can do pliz pliz a duet with me i can show it to my mom and told her she s wrong pliz pliz'
p462
aS'yeah'
p463
aS'awesome thank you i am hoping i can get it'
p464
aS'yes'
p465
aS'yes i am interested i m sure it ll be beautiful'
p466
aS'omg'
p467
aS'good i m at the beach'
p468
aS'lot of people to answer so it means alot that your talking to me rn and if u dont have time to check out my channel i completely understand'
p469
aS'sure'
p470
aS'good'
p471
aS'can you say hi to me'
p472
aS'who'
p473
aS'aw and good i m at the beach'
p474
aS'yes'
p475
aS'good'
p476
aS'no thanks i m a guy'
p477
aS'good and yours'
p478
aS'z'
p479
aS'hi'
p480
aS'how do i get it'
p481
aS'wow i love it'
p482
aS'definitely'
p483
aS'umm how would i get it'
p484
aS'yes for sure ilysm and do u have any advice on getting featured btw your super pretty'
p485
aS'yes'
p486
aS'hey when did u start musical ly'
p487
aS'thanks'
p488
aS'did u make the makeup'
p489
aS'okay i ll like it for sure ily'
p490
aS'that sound so cool i would love if we became friends you seem so nice'
p491
aS'not good but cute'
p492
aS'you look so pretty but i think you look better without makeup'
p493
aS'good how is yours'
p494
aS'can u follow me on mussxaly crazzycookie plz if u want'
p495
aS'sounds great omg i can t believe u texted back'
p496
aS'can you write my name on a piece of paper and then take a picture of it with you next to it'
p497
aS'hi'
p498
aS'kk thanks so much'
p499
aS'ok'
p500
aS'how much does it cost'
p501
aS'yes it does'
p502
aS'ok lol'
p503
aS'ok'
p504
aS'good'
p505
aS'yes'
p506
aS'hiiii is this morgan'
p507
aS'thank you soo much yiu jus made my night'
p508
aS'yes'
p509
aS'is this really her'
p510
aS'yessss'
p511
aS'yes'
p512
aS'omg yes'
p513
aS'can u follow me'
p514
aS'good and aweeeee so cute'
p515
aS'ok'
p516
aS'ok'
p517
aS'i don t believe it s u'
p518
aS'veru much'
p519
aS'actually i do not wear makeup just because i don t like the feel of it but i think that was an amazing thing for you to do for us i appreciate the offer though'
p520
aS'lol'
p521
aS'you re so welcome'
p522
aS'hii'
p523
aS'heyyy'
p524
aS'yeah cool'
p525
aS'i ll think about it but i ll definitely check it out first'
p526
aS'who is this'
p527
aS'are u hacked'
p528
aS'great'
p529
aS'yes ofc'
p530
aS'ok thanks i will try to get it soon'
p531
aS'hey i m one of your fans and i like your musically'
p532
aS'good'
p533
aS'so true'
p534
aS'yay'
p535
aS'i love you so much'
p536
aS'look good'
p537
aS'yes'
p538
aS'sure but i m a boy so i can give it to my mom though'
p539
aS'ily so much'
p540
aS'yes'
p541
aS'good'
p542
aS'okay'
p543
aS'is this a hacker'
p544
aS'cool'
p545
aS'yeah no don t want it'
p546
aS'stop'
p547
aS'when are you doing a following spree'
p548
aS'sure'
p549
aS'good yours'
p550
aS'no thx bit thx for asking'
p551
aS'i m am literally so happy that you responded idek what to do i m so so so happy thank you so much'
p552
aS'o thank you because it was very expensive but i want it'
p553
aS'good'
p554
aS'yes it sounds amazing'
p555
aS'hi i m a huge fan if this is morgankatherine'
p556
aS'yes'
p557
aS'why did you put your number on musical ly that like'
p558
aS'no sorry'
p559
aS'lucky'
p560
aS'im interested'
p561
aS'yes'
p562
aS'what s up'
p563
aS'good'
p564
aS'yes it does'
p565
aS'r u hacked'
p566
aS'yes how much does it cost'
p567
aS'sure'
p568
aS'hi omg illy sm'
p569
aS'is this really your phone number i haven t been following your for long but you ve got really pretty hair lol also you look really good without braces i m mea'
p570
aS'hey'
p571
aS'wyd'
p572
aS'good'
p573
aS'yes'
p574
aS'sure'
p575
aS'ok'
p576
aS'lucky and my day was fine'
p577
aS'good'
p578
aS'kay thank you'
p579
aS'good how about yours'
p580
aS'can you please follow me on musical ly princesssaubree'
p581
aS'wat sports do u like'
p582
aS'is it possible that i can text u tomorrow morgan katherine'
p583
aS'aaawww so cute my day was wonderful i just got back from seeing the beauty and the beast how was yours'
p584
aS'no'
p585
aS'yes'
p586
aS'ok thanks'
p587
aS'yes'
p588
aS'yes'
p589
aS'yes it does'
p590
aS'yes'
p591
aS'thanks so much i might be interested are you gonna go on tour'
p592
aS'hay'
p593
aS'aww'
p594
aS'yes i am very interested'
p595
aS'ya'
p596
aS'and do you bff fans or follow them'
p597
aS'good'
p598
aS'hey'
p599
aS'okay thank you i love you'
p600
aS'hi'
p601
aS'my day was great but i be to go to the dentist but everything good'
p602
aS'ok'
p603
aS'ok'
p604
aS'no thx'
p605
aS'sure'
p606
aS'cool'
p607
aS'ilsym'
p608
aS'i m sry i don t put makeup on cause i m not a girl'
p609
aS'hello'
p610
aS'i m interested'
p611
aS'okay love'
p612
aS'yes'
p613
aS'i am so interested'
p614
aS'what do i do with me having freckles cover them up'
p615
aS'yes'
p616
aS'ok'
p617
aS'sure how much would it cost'
p618
aS'good'
p619
aS'nice'
p620
aS'yes'
p621
aS'hey'
p622
aS'aww it s good it s my moms birthday'
p623
aS'hey i love you so so so much i m your biggest fan you always put a smile on my face and your flawless plz message me back live you'
p624
aS'i cant have makeup'
p625
ag22
aS'yes how much'
p626
aS'want to facetime or call'
p627
aS'no'
p628
aS'how many people have texted you bc your very loved'
p629
aS'cool i m a huge fan'
p630
aS'im so happy'
p631
aS'ok'
p632
aS'yes this is alexandra'
p633
aS'yasssss'
p634
aS'what is ur snap chat username'
p635
aS'cool gonna give it a'
p636
aS'can u say hi ashia'
p637
aS'hi'
p638
aS'can u bff me plz'
p639
aS'this is all really fake tho'
p640
aS'omg is this morgan katharine'
p641
aS'yes'
p642
aS'what type of phone do you have'
p643
aS'good'
p644
aS'hey'
p645
aS'hi huge fan can we make a duet please'
p646
aS'can i be your best fan'
p647
aS'follow me bellarusso'
p648
aS'can u add me please'
p649
aS'you have the wrong number'
p650
aS'hi'
p651
aS'omg hi'
p652
aS'yes'
p653
aS'how old are u'
p654
aS'good'
p655
aS'ok love ya'
p656
aS'hello i m a big fan'
p657
aS'yes that is so nice of you'
p658
aS'yes i am'
p659
aS'great i went shopping today'
p660
aS'yeah cool'
p661
aS'yes please'
p662
aS'that s a lot of money okay'
p663
aS'call me too prove it'
p664
aS'ok'
p665
aS'haha that s amazing i m talking to a great person'
p666
aS'yes i will'
p667
aS'good'
p668
aS'omg u replied'
p669
aS'yea'
p670
aS'yw when di u actually schedule to do muscial lys'
p671
aS'hey'
p672
aS'my username is kaitlyn morales'
p673
aS'thanks i think i m going to get it in the morning'
p674
aS'yesssss'
p675
aS'yes thank u'
p676
aS'hey'
p677
aS'awesome actually hope you have fun'
p678
ag22
aS'yea'
p679
aS'hi i love ur musicalys'
p680
aS'are you the real morgan'
p681
aS'by the way my name is taylor'
p682
aS'good and yours'
p683
aS'omg is it really you'
p684
aS'ok'
p685
aS'sure'
p686
aS'hey'
p687
aS'it s very pretty but i don t wear makeup yet lol but thank you for'
p688
aS'yes thank you very much much love for you'
p689
aS'hey is this morgan on musicaly'
p690
aS'hello is this morgan'
p691
aS'so how was your day'
p692
aS'yes'
p693
aS'k good'
p694
aS'awe you look so pretty'
p695
aS'omg heyyyyy'
p696
aS'who s this'
p697
aS'my mom said no'
p698
aS'nice'
p699
aS'yeah'
p700
aS'okk that sounds assome sooo what are you doing'
p701
aS'hey idk if you ll even respond cause you probably have a lot of people texting you and idek if this is your number or if you got hacked but i just want to say that you re musical ly s and you re so pretty'
p702
aS'u are so pretty'
p703
aS'sounds great'
p704
aS'hey morgan i m a big fan of you and your musical lys i just wanted to say that and have a great summer'
p705
aS'omg hey i love your musical lys'
p706
aS'yes'
p707
aS'my name is madison btw'
p708
ag22
aS'yes'
p709
ag22
aS'i m sorry i don t do makeup but thank u if i did do makeup i would totally get it cause ur makeup looks stunning'
p710
aS'amazing we went school shopping how fun'
p711
aS'yes'
p712
aS'hi morgan i love you so much you make my day please answer it will mean the whole world to me and if you answer can we please friends'
p713
aS'it was good'
p714
aS'is this your personal number'
p715
aS'ok'
p716
aS'your welcom'
p717
aS'i don t care'
p718
aS'it s really good'
p719
aS'good'
p720
aS'i am not interested but thanks for offering'
p721
aS'yea'
p722
aS'good how was yours'
p723
aS'can you plz check out some of my musiclys and tell me what you think cause i m trying to get feature and be like you and babyariel'
p724
aS'pretty good i went to camp and hung with my friends what type of animals were they'
p725
aS'yes i am'
p726
aS'good how about yours'
p727
aS'thank u i will make sure to check it out'
p728
aS'huge fan of ur musicallys ur so pretty'
p729
aS'yea'
p730
aS'okay thanks i will checking out'
p731
aS'great'
p732
aS'i mean i guess'
p733
aS'yes thank you so much ur makeup is amazing u look gorgeous with or without makeup'
p734
aS'hey love your musically so much'
p735
aS'fuck u bitch'
p736
aS'so'
p737
aS'yeah'
p738
aS'bitch stop texting this damn number'
p739
aS'hey is this morgan'
p740
aS'awwww so cute my day was good'
p741
aS'hey i love you sm you are so amazing'
p742
aS'good'
p743
aS'yes'
p744
aS'you are so pretty'
p745
aS'yes'
p746
aS'bff'
p747
aS'yeah i am'
p748
aS'can you call me'
p749
aS'yes'
p750
aS'is this really you'
p751
aS'hello'
p752
aS'yes'
p753
aS'omg i can t believe this'
p754
aS'yesss'
p755
aS'sounds great'
p756
aS'yeah'
p757
aS'yes'
p758
aS'hey hey girl'
p759
aS'definitely'
p760
aS'my user is bxby syddd'
p761
aS'hi'
p762
aS'sure lol'
p763
aS'thanks glad to know going to go watch it'
p764
aS'ya i believe in you fan'
p765
aS'ok thank you i will check it out'
p766
aS'u are awesome'
p767
aS'it was good'
p768
aS'where would i be able to get it'
p769
aS'yes'
p770
aS'yea'
p771
aS'yes it sounds good'
p772
aS'thanks'
p773
aS'yes'
p774
aS'yess this is awesome how much is it'
p775
aS'fake fake fake'
p776
aS'yours truly perla'
p777
aS'okay thank you'
p778
aS'could we facetime sometime'
p779
aS'cool i m almost'
p780
aS'is this really her'
p781
aS'yes i am'
p782
aS'omg hey morgan ilysmmm im one of your biggest fans ily'
p783
aS'that s so cool'
p784
aS'i will see but how come you haven t posted any new musicallys your so good at them'
p785
aS'wrong number'
p786
aS'can u bff me on musical ly plz kiley marie'
p787
aS'yup'
p788
aS'd can u add me on insta http jeennii'
p789
aS'nah nvm i want it for free'
p790
aS'yes'
p791
aS'cool'
p792
aS'pls follow me'
p793
aS'that s amazing'
p794
aS'yes'
p795
aS'yeah that s cool'
p796
aS'yea'
p797
aS'okay'
p798
aS'is this actually u'
p799
aS'omg i m a huge fan of ur work ur so pretty and super cool and i love ur musical lys'
p800
aS'i thought it was free no way'
p801
aS'hey morgan i am a huge fan love your musical ly that you make'
p802
aS'no'
p803
aS'hi'
p804
aS'i wish i could meet you'
p805
aS'yes you are gorgeous'
p806
aS'awwww'
p807
aS'heyy'
p808
aS'hi'
p809
aS'yup'
p810
aS'hey i love you so much'
p811
aS'ok'
p812
aS'u could have gotten it off the internet'
p813
aS'hey and okay cool'
p814
ag22
aS'yeah thank you'
p815
aS'hey'
p816
aS'ith me it sucks being a nobody on musically but you are just amazing'
p817
aS'how much'
p818
aS'yes'
p819
aS'yea'
p820
aS'ok'
p821
aS'what was that for'
p822
aS'omg hi i m such a big fan of yours on music ly'
p823
aS'i liked it'
p824
aS'hey'
p825
aS'hi'
p826
aS'ok thanks'
p827
aS'hiii'
p828
aS'yeah that d be so cool'
p829
ag22
aS'my musically is ella winky'
p830
aS'love you to have a great day hope to talk to u soon'
p831
aS'yes'
p832
aS'is it free'
p833
aS'yes'
p834
aS'your welcome'
p835
aS'umm yaaa i would love one how do i get it pllleeezz tell me'
p836
aS'hi is this morgan'
p837
aS'sure'
p838
aS'yes'
p839
aS'yes'
p840
aS'yeah totally btw do u have a youtube if not you should start one and upload a room tour'
p841
aS'yesss'
p842
aS'hi'
p843
aS'omg hey morgan i love your musical lys so much'
p844
aS'no i m a guy'
p845
aS'how are you'
p846
aS'yes that sound amazing i can t believe this is actually u'
p847
aS'yes i am interested'
p848
aS'ok thanks morgan for the info love you have a good day'
p849
aS'umm would it be money'
p850
aS'your so pretty'
p851
aS'younow'
p852
aS'yes'
p853
aS'no sorry i m a boy'
p854
aS'k'
p855
aS'i liked it'
p856
aS'okay thank you'
p857
aS'good'
p858
aS'my day was great i got to video call my internet bestie'
p859
aS'hi i m a big fan can we be internet friends'
p860
aS'can you post the video on musical ly explaining everything i m kind of eager'
p861
aS'who is this'
p862
aS'hi morgann'
p863
aS'yes'
p864
aS'can u do me a favor can u bff me on musical ly its roseytt'
p865
aS'yes'
p866
aS'ok got yah'
p867
aS'yes'
p868
aS'is this really you morgan i love your musiclys so much i hope you can follow me back my name is gisell haro'
p869
aS'greatttttt'
p870
aS'yess'
p871
aS'how much'
p872
aS'yes'
p873
aS'ily so much'
p874
aS'omg your so beautiful'
p875
aS'hi morgan i m one of your biggest fans on musical ly i love your videos and especially your makeup i hope that you write back to me cause that would be pretty awesome'
p876
aS'hi morgan i love you so so much'
p877
aS'yes'
p878
ag22
aS'hi'
p879
aS'btw i m taylor'
p880
aS'how do i get it'
p881
aS'yes please'
p882
aS'yeah how u text so fast'
p883
aS'yes'
p884
aS'my day was good i hang out with my cousins'
p885
aS'good'
p886
aS'good'
p887
aS'hey'
p888
aS'lol yes it does'
p889
aS'yea that s cool and so on muscuallys how is it being well known so do you go to school if you do go to school do you get bullied because you do muscually'
p890
aS'yasssssssss'
p891
aS'is this u everyone is saying u r hacked'
p892
aS'yes'
p893
aS'sure'
p894
aS'who is this'
p895
aS'of course'
p896
aS'yes'
p897
aS'good'
p898
aS'now i want coffee'
p899
aS'hiii im madison just wanted to say that i love your musicl lys so much and i think u r soooo pretty ur literally my goals okay love you'
p900
aS'what kind of kit is it'
p901
aS'i m a guy'
p902
aS'aww and good but i m sad'
p903
ag22
aS'good'
p904
aS'okay'
p905
aS'omg yessss it does'
p906
aS'good really good because i m talking to u'
p907
aS'yes very'
p908
aS'yes'
p909
aS'hi'
p910
aS'great how s yours'
p911
aS'hi i m mckenzie is this morgan from musicly'
p912
aS'no thanks and can u please stop texting me no offence but it s kinda like spam'
p913
aS'hi i m one of your fans on musical ly'
p914
aS'your so pretty'
p915
aS'good and aww did u get one'
p916
aS'omg yess'
p917
aS'yes'
p918
aS'yup'
p919
aS'good'
p920
aS'awesome'
p921
aS'yes of course'
p922
aS'i love it'
p923
aS'ok thank you b'
p924
aS'yea sounds fun'
p925
aS'hey'
p926
aS'yes'
p927
aS'yes'
p928
aS'good'
p929
aS'good how bout u'
p930
aS'do i text that mum'
p931
aS'gorgeous'
p932
aS'so cute'
p933
aS'yes'
p934
aS'sorry my dad said no'
p935
aS'sup'
p936
aS'love you can you please follow me on instagram that would make my day i just had my wisdom teeth out lol madison hall'
p937
aS'also hi'
p938
aS'when is ur bday'
p939
aS'yes totaly'
p940
aS'it s really awesome how you are texting your fans'
p941
aS'huge fan'
p942
aS'good'
p943
aS'omg i agree so much literally'
p944
ag22
aS'awww thanks is so cute and my day was so good'
p945
aS'hi'
p946
aS'i like ur lip color'
p947
aS'yess'
p948
aS'yes'
p949
aS'i got a text from u saying hey this is morgan katherine thanks for messaging me i will be texting you from should i text u from this or the on i already texted u on'
p950
aS'good'
p951
aS'ok'
p952
aS'is this morgan if so can i get a shout out my user name is paradyse please i am a huge fan love to so much'
p953
aS'hey'
p954
aS'how much'
p955
aS'hehe morgan'
p956
aS'yuppers'
p957
aS'ok thanks'
p958
aS'my day was good'
p959
aS'this is weird but uhm hi'
p960
aS'hi again'
p961
aS'good you'
p962
aS'cool'
p963
aS'aww that s cute and my day was good'
p964
aS'yes ma am'
p965
aS'oh my goodness i can t believe you leaked your number and you are so beautiful'
p966
aS'hey'
p967
aS'ok'
p968
aS'my day was good thanks for asking'
p969
aS'then post a real musical ly because people keep saying its a hacker'
p970
aS'if this is auctually morgan i love you sooo much'
p971
aS'hiiiii'
p972
aS'sure'
p973
aS'good hbu'
p974
aS'good'
p975
aS'ur welcome'
p976
aS'yes i am interested'
p977
aS'ok is this just technology thing or is this really you'
p978
aS'that s really cool i ve always liked your last name because my first name is actually catherine but spelt with a c'
p979
aS'it was good'
p980
aS'okay'
p981
ag22
aS'can i call you'
p982
aS'yes i am'
p983
aS'my day was good'
p984
aS'mine was terrible'
p985
aS'hi'
p986
aS'can you send a photo of yourself w a fishy face or something'
p987
aS'nice makeup'
p988
aS'your so pretty'
p989
aS'yes'
p990
aS'yeah that s sounds amazing thank you'
p991
aS'is this morgan'
p992
aS'yeah'
p993
aS'wyd'
p994
aS'i m going to bed so ttyl'
p995
aS'okay thank you'
p996
aS'yo'
p997
aS'omg hi'
p998
aS'thanks could you maybe give me a shoutout or something because i don t have many followers on musically or like'
p999
aS'good how was yours'
p1000
aS'ok'
p1001
aS'hi'
p1002
aS'hey this is maddie no problem i love your musicallys so much that s sounds awesome thank you for answering'
p1003
aS'bad'
p1004
aS'awww so cute it was good l m guessing yours was good'
p1005
aS'hey'
p1006
aS'yes'
p1007
aS'yeah shout out'
p1008
aS'sure'
p1009
aS'yes'
p1010
aS'hello'
p1011
aS'sure'
p1012
aS'is it for free tho'
p1013
aS'haha yes'
p1014
aS'yes'
p1015
aS'bff me on musical ly plzzz'
p1016
aS'my day is good thanks for asking'
p1017
aS'your my favourite'
p1018
aS'hey'
p1019
aS'your so pretty and i would love to but he makeup kit'
p1020
aS'is this morgan katherine'
p1021
aS'thank you for entertaining us and inspiring everyone'
p1022
aS'good'
p1023
aS'good'
p1024
aS'please answer i love you so much'
p1025
aS'hi'
p1026
aS'beautiful with or without sorry maybe one day in the future'
p1027
aS'hey i love you so much i am a fan of yours on musical ly'
p1028
aS'and can u follow me on musically it ava'
p1029
aS'good'
p1030
aS'who is this'
p1031
aS'omg yes'
p1032
aS'hi'
p1033
aS'who is this'
p1034
aS'hi'
p1035
aS'cool thanks n'
p1036
aS'sounds awesome'
p1037
aS'ilyyyy'
p1038
aS'thanks'
p1039
aS'it was great i had soccer tryouts this morning'
p1040
aS'will you please follow me on music ly at kaylamadison please'
p1041
aS'omg hi'
p1042
aS'hi'
p1043
aS'omg yes i m crying so much right now your my inspiration'
p1044
aS'your welcome and btw i love ur different hair colors my hairs naturally red'
p1045
aS'hi my name is kaylynne i love your musical lys it would mean the world if you would please follow me back on musical ly kay hunley'
p1046
aS'i hope so too because i have watched you since you first started social media and it was so cool watching you get more fans and likes'
p1047
aS'no'
p1048
aS'i m sorry i just found out i can t get it i m sorry again'
p1049
aS'lucky'
p1050
aS'hey'
p1051
aS'gmmmmm'
p1052
ag22
aS'hi'
p1053
aS'np idk what to talk about but i wanna talk to u'
p1054
aS'yes'
p1055
aS'yea'
p1056
aS'good he s adorable do u have snapchat'
p1057
aS'lol true'
p1058
aS'will u follow me please so that i can duet with u'
p1059
aS'i d love to get it'
p1060
aS'good i went swimming'
p1061
aS'yes yes yes yes yes'
p1062
aS'i love your musicallys and you are super gorgeous i wish i could look like youu'
p1063
aS'yes'
p1064
aS'hi morgan i m a huge fan and ilysm it would mean everything if you replied love you'
p1065
aS'your welcome so what are you doing'
p1066
aS'boring just been sitting at home'
p1067
aS'yes'
p1068
aS'yes how many times have u been featured'
p1069
aS'i m okay but thanks for offering'
p1070
aS'no thank u i m a male but thank u for and offer'
p1071
aS'ummm ya how much is it'
p1072
aS'thanks i will check it out'
p1073
aS'block and delete'
p1074
aS'how much are they'
p1075
aS'hello'
p1076
aS'have you ever thought about singing you seem like you d be great at it'
p1077
aS'omg hi'
p1078
aS'good'
p1079
aS'heck yes im interested'
p1080
aS'oh alright thx'
p1081
aS'hey'
p1082
aS'yes'
p1083
aS'yes it does'
p1084
aS'no thanks i m a straight boy nothing wrong with gays tho so i have no use for makeup'
p1085
aS'yes'
p1086
aS'aww now i want starbucks'
p1087
aS'yeah that sounds awesome'
p1088
aS'hi'
p1089
aS'omg hey i love your musicllys so much'
p1090
aS'this is so cool thanks so much'
p1091
aS'plz follow me and shoutout i love u and my username on musicaly is lyssa lou'
p1092
aS'yes'
p1093
aS'your musicallys are so good'
p1094
aS'good'
p1095
aS'is this morgan katherine'
p1096
aS'um do you have to pay if not sure'
p1097
aS'good'
p1098
aS'do u personally text'
p1099
aS'sure'
p1100
aS'are you hacked on musically'
p1101
aS'boring'
p1102
aS'yah cool'
p1103
aS'hey is this morgan'
p1104
aS'he'
p1105
aS'yea is this really you though'
p1106
aS'ight'
p1107
aS'hey i just wanna say that you re gorgeous i love you soo'
p1108
aS'how much will it cost to get the kit'
p1109
aS'thank you can u possibly follow me on music ly'
p1110
aS'and your gorgeous in every way'
p1111
aS'omg hi morgan your beautiful and i love you'
p1112
aS'and your welcome'
p1113
aS'it really does lol'
p1114
aS'yes'
p1115
aS'what s your snapchat'
p1116
aS'same'
p1117
aS'it s was good today my birthday btw'
p1118
aS'hi'
p1119
aS'yes'
p1120
aS'awh that s fun and great how was yours i can t believe you answered me back'
p1121
aS'good'
p1122
aS'hey i love your musicals'
p1123
aS'heyyy'
p1124
aS'i like ur music lys'
p1125
aS'yes'
p1126
aS'omg it s so cute and it was great what about you'
p1127
aS'hello'
p1128
aS'no shit'
p1129
aS'it was good'
p1130
aS'yep'
p1131
aS'ok i figured i just checked your snapchat'
p1132
aS'did you get hacked or is this really morgan'
p1133
aS'heyy is this morgan katherine omg if it is i love you so muchh please answer'
p1134
aS'yess yes yes i would love too'
p1135
aS'actually fuck off'
p1136
aS'yum'
p1137
aS'your welcome please follow me mine music ly is savage brooklyn'
p1138
aS'lets get roight into the news exposed'
p1139
ag22
aS'omg i love u'
p1140
aS'hi'
p1141
aS'okay'
p1142
aS'who is this'
p1143
aS'good'
p1144
aS'good'
p1145
aS'yeah'
p1146
aS'yes really cool can'
p1147
aS'awww and my day was really good what about yours'
p1148
aS'sure'
p1149
aS'yes'
p1150
aS'hey morgan i live in benton'
p1151
aS'actually'
p1152
aS'yes'
p1153
aS'did u post anything on ur snapchat story yet bc if u did i can t see it'
p1154
aS'who thus'
p1155
aS'hello i m a huge fan'
p1156
aS'i don t have no money my fan is broke'
p1157
aS'when u get this i wanted to say that your awsone and i really wanted to know your favorite emoji'
p1158
aS'i m not allowed to wear makeup'
p1159
aS'can you do a duet with me my musically is jennifer'
p1160
aS'okay'
p1161
aS'yes'
p1162
aS'i just swam'
p1163
aS'hey'
p1164
aS'ilysm'
p1165
aS'prettu'
p1166
aS'hello'
p1167
aS'omg hi you re so good at musical ly i m jealous'
p1168
aS'i love you so much'
p1169
aS'yeah'
p1170
aS'k'
p1171
aS'who is this'
p1172
aS'hi'
p1173
aS'what you doin'
p1174
aS'yes'
p1175
aS'yes'
p1176
aS'omg yes i would love to'
p1177
aS'plz'
p1178
aS'okay thank you i m excited'
p1179
aS'yes omg'
p1180
aS'you are so cute'
p1181
aS'hi morgan ilysmmm'
p1182
aS'go away'
p1183
aS'yes'
p1184
aS'my day was good you still havent followed me on muscail ly uhhhitzemma'
p1185
aS'okay can you bff me my name is chloe'
p1186
aS'yes'
p1187
aS'sure'
p1188
aS'yes thank you'
p1189
aS'don t you live right up the street from me'
p1190
aS'ok'
p1191
aS'omg dude your so beautiful and i love your hair'
p1192
aS'i am'
p1193
aS'how much'
p1194
aS'hi'
p1195
aS'omg i meant good'
p1196
aS'plz plz plz'
p1197
aS'stop it you hacked morgan'
p1198
ag22
aS'no problem and really thanks i can get it for christmas anyways'
p1199
aS'hi'
p1200
aS'hi'
p1201
aS'i don t really do makeup'
p1202
aS'yes i want one'
p1203
aS'hi'
p1204
aS'yes please'
p1205
aS'yes'
p1206
aS'sounds great'
p1207
aS'see that s why you are my idol'
p1208
aS'hi'
p1209
aS'yep'
p1210
aS'good'
p1211
aS'okay how are you'
p1212
aS'yeah does it cost any money'
p1213
aS'wassup'
p1214
aS'i think my sister would be interested'
p1215
aS'yes and i just wanna tell you your so pretty'
p1216
aS'yes'
p1217
aS'yes'
p1218
aS'it was good'
p1219
aS'oh so cute my day was good'
p1220
aS'i have a question about the kit if you don t mind'
p1221
aS'np'
p1222
aS'hey'
p1223
aS'hey'
p1224
ag22
aS'can you please try to answer me'
p1225
aS'ok'
p1226
aS'yes'
p1227
aS'it was good my sisters taking her senior photos'
p1228
aS'yes'
p1229
aS'hey'
p1230
aS'how much is it'
p1231
aS'yes'
p1232
aS'hi am ur fan'
p1233
aS'yes how much'
p1234
aS'ok thx'
p1235
aS'yup'
p1236
aS'awe u look pretty it was ok'
p1237
aS'yes'
p1238
aS'i didn t know what the number was when i texted it my friend did that on my phone so who are you or what do you do'
p1239
aS'who is this'
p1240
aS'how s it going'
p1241
aS'yea'
p1242
aS'hey i love u and ur musicaly s'
p1243
aS'i really like your black hair too btw'
p1244
aS'yeah'
p1245
aS'good'
p1246
aS'hi'
p1247
aS'yes'
p1248
aS'hi'
p1249
aS'hi'
p1250
aS'ok i ll be checking and i will spam them'
p1251
aS'is this really u'
p1252
aS'morgan'
p1253
aS'how many days will it take it to get it to me'
p1254
ag22
aS'hey who is this'
p1255
aS'holy shit u actually replied correctly'
p1256
aS'yup'
p1257
aS'hi'
p1258
aS'hey i have no friends so can i text uv'
p1259
ag22
aS'yes'
p1260
aS'pretty good almost caught one of those in the wild'
p1261
aS'yes please how much'
p1262
aS'omg hii ilysm can u do a duet with me on musically kendallhein'
p1263
aS'hi is this morgan'
p1264
aS'yes'
p1265
aS'yess'
p1266
aS'yes your makeup is perf'
p1267
aS'can you call me sometime'
p1268
aS'hiiii is this morgan'
p1269
aS'im so happy in talking to you im literally crying'
p1270
aS'but anyway sorry for the long text you don t have to text back if you can t'
p1271
ag22
aS'i m your biggest fan you are gorgeous'
p1272
aS'i don t think i know you'
p1273
aS'it was good'
p1274
aS'okay thx'
p1275
aS'hey'
p1276
aS'fun fun well i wish i can get a bff your my fave muser'
p1277
aS'are you going to go live at all this weekend on lively'
p1278
aS'and i just want to make sure are you the real morgan katherine'
p1279
aS'awe'
p1280
aS'can u bff me please it would make my day even better ryliewhitten musical ly'
p1281
aS'yeah i love to'
p1282
aS'hi'
p1283
aS'can you bff me plz my musical ly name is superior sophie'
p1284
aS'anytime if you had to pick one muser who would be your favorite'
p1285
aS'can i plz have a duet my user is averie'
p1286
aS'yes'
p1287
aS'ya awesome'
p1288
aS'hey'
p1289
aS'that is so cool i love your musical ly videos you are just someone that is safe to follow that doesn t curse i just want to thank you'
p1290
aS'ok'
p1291
aS'i m interested'
p1292
aS'hey morgan'
p1293
aS'heyyyy'
p1294
aS'no it s fine i totally get it i m sorry for even asking cause i m just grateful that in even talking to u'
p1295
aS'where do u live'
p1296
aS'is this actually morgan'
p1297
aS'hey i love your musical lys wish you would check out mine torii webster'
p1298
aS'aww how adorable my day was amazing thanks for asking'
p1299
aS'yes'
p1300
aS'yes'
p1301
aS'would you follow me'
p1302
aS'will you please follow me on instagram if you do im gonna cry i love you so much'
p1303
aS'cool'
p1304
aS'yes'
p1305
aS'hey'
p1306
aS'i m a guy tho'
p1307
aS'yes'
p1308
aS'omg im crying i love u so much kskskskkak'
p1309
aS'answer me'
p1310
aS'of course'
p1311
aS'is this the right number'
p1312
aS'good how was its'
p1313
aS'ok i ll check it out'
p1314
aS'great'
p1315
aS'i love you so much you are gorgeous'
p1316
aS'i m confused'
p1317
aS'great'
p1318
aS'yessss'
p1319
aS'yes'
p1320
aS'ya'
p1321
aS'yeah'
p1322
aS'why d you send me that picture'
p1323
aS'that looks screenshot'
p1324
aS'lol u text back fast'
p1325
aS'i love you so much you inspire almost all of my musicallys cause you are so talented and i want to be just like you not only are you talented but you are also beautiful i know everyone says you look better with brown hair but you look gorgeous with your natural hair please notice me'
p1326
ag22
aS'yes'
p1327
aS'okay'
p1328
aS'hey morgan ilysm your musicallys slay and your so pretty'
p1329
aS'hi is this morgan if so i m really huge fan'
p1330
aS'yes'
p1331
aS'omg hiii'
p1332
aS'is it free'
p1333
aS'yes'
p1334
aS'good'
p1335
aS'good'
p1336
aS'your literally so pretty'
p1337
aS'okay but can you follow me on insta and musical ly'
p1338
aS'sure btw is this a robot lol sorry if it isn t'
p1339
aS'yes'
p1340
ag22
aS'yea no prob so how is ur day been going'
p1341
aS'hi can u give me a shout out'
p1342
aS'in your way you slay girl'
p1343
aS'oml i m dying is this actually you'
p1344
aS'can we make a duet please'
p1345
aS'yea i would love to get it'
p1346
aS'okaay'
p1347
aS'hi oh my gosh i love you so much and you re musicallys'
p1348
aS'r u giving shout outs to the people that text u from musical ly or just for fun'
p1349
aS'can u please bff me my muser name is ave mae'
p1350
aS'but anyways i love you so much keep being you'
p1351
aS'yes i would love it'
p1352
aS'good how s yours'
p1353
aS'it was great i danced for hours at my dance studio'
p1354
aS'it was good how was ur day'
p1355
aS'yah thx i think your amazing your so pretty'
p1356
aS'so can u bff me on musical ly only if u want u don t have to'
p1357
aS'hi is this morgan'
p1358
aS'yes'
p1359
aS'omg hiiii'
p1360
aS'thanks'
p1361
aS'is this morgankatherine on musical ly'
p1362
aS'i ll check it out right now'
p1363
aS'fun i m in la rn'
p1364
aS'yes'
p1365
aS'this is fake'
p1366
aS'yeah that s cool i love seeing your musicallys'
p1367
aS'yes'
p1368
aS'hey ilysm'
p1369
aS'how much does it cost'
p1370
aS'love that drink'
p1371
aS'sorry im just trying to start a convo lol and im bad at it'
p1372
aS'no'
p1373
aS'yes how much would it cost'
p1374
aS'it was good'
p1375
aS'ok'
p1376
aS'megan'
p1377
aS'yes'
p1378
aS'i really love your videos'
p1379
aS'yes'
p1380
aS'yeah'
p1381
aS'hi i love your musical lys'
p1382
aS'my day was good'
p1383
aS'yes where can i buy it'
p1384
aS'yes'
p1385
aS'hi'
p1386
aS'katherine please'
p1387
aS'good'
p1388
aS'ok'
p1389
aS'no starbucks lol'
p1390
aS'yes i m so interested'
p1391
aS'heyy i m ur biggest fan ilysm and ur musical ly are goals'
p1392
aS'can you follow me on musical ly'
p1393
aS'yes'
p1394
aS'how many fans have done this'
p1395
aS'if'
p1396
aS'your welcome i love you so much'
p1397
aS'hi omg ilysm'
p1398
aS'yes'
p1399
aS'yes'
p1400
aS'are you here'
p1401
aS'yes'
p1402
aS'so if it cost money i can t buy it but if it is free then yes ofcourse thankyou so much'
p1403
aS'fine'
p1404
aS'i am but the thing is i don t have any money to spend on it'
p1405
aS'for how much money'
p1406
aS'i m day was great and i went to starbucks and subway'
p1407
aS'yeah that s perfect'
p1408
aS'hey are you morgan if you are i love your muscuallys and thx for making me best fan forever and we should like talk and be friends'
p1409
aS'yess'
p1410
aS'is this katherine'
p1411
aS'hi'
p1412
aS'd d d d d d'
p1413
aS'hey'
p1414
aS'good went to the beach'
p1415
aS'good'
p1416
aS'good how was your day'
p1417
aS'thank you is there going to be a discount or no'
p1418
aS'are u sure'
p1419
aS'yes i am super untreated'
p1420
aS'hey im a big fan'
p1421
aS'yes'
p1422
aS'yeah'
p1423
aS'how much is it'
p1424
aS'omg yes'
p1425
aS'yes omg follow me amykristofferson'
p1426
aS'hello'
p1427
aS'yes'
p1428
aS'your welcome and i am not one of those crazy fan girls sorry if u think i am'
p1429
aS'yes i am totally in'
p1430
aS'pls yes yes yes'
p1431
aS'mine was good i hope yours was as amazing as you are'
p1432
aS'cool'
p1433
aS'ok'
p1434
aS'awwww my day was good except i finished my favorite netflix series so i was sad'
p1435
aS'did u like having braces'
p1436
aS'yes one question how much money do u think u spend on ur make up'
p1437
aS'aw it was great wbu'
p1438
aS'because i was really scared you were hacked'
p1439
aS'so pretty'
p1440
aS'omg yess'
p1441
aS'omg please follow me on instagarm it musically'
p1442
ag22
aS'yes'
p1443
aS'good'
p1444
aS'yup'
p1445
aS'yes i d love to'
p1446
aS'i luv the pic'
p1447
aS'i m sorry i would love to but i can t at the moment'
p1448
aS'wat does your real voice sound like'
p1449
aS'good and u'
p1450
aS'why doesn t it work'
p1451
aS'ok'
p1452
aS'yes'
p1453
aS'hi i m your biggest fan'
p1454
aS'wyd'
p1455
aS'good'
p1456
aS'good'
p1457
aS'good how was yours'
p1458
aS'no i m good'
p1459
aS'yes'
p1460
aS'thank you i am about to cry'
p1461
aS'sure'
p1462
aS'can you check out my musically'
p1463
aS'yes'
p1464
aS'ur welcome'
p1465
aS'omg yessss thanks so so much and i also wanted to say morgan this is your biggest fan i can t believe im talking to u but i hope u see the this can u plz plz plz follow and do a duet with ne on musically its kate lorraine it would mean the world cause ilysm i hope u see this plz plz plz'
p1466
aS'i hope so'
p1467
aS'if this is really you then send me another picture'
p1468
aS'yes'
p1469
aS'how much'
p1470
aS'yes'
p1471
aS'i m a boy sorry'
p1472
aS'what r u studying'
p1473
aS'interested i would luv that sooooo much thank you seriously that means a lot'
p1474
aS'you welcome'
p1475
aS'good'
p1476
aS'ok i will be heading home tomorrow an ill tell my dad as soon as i get there'
p1477
aS'k'
p1478
aS'very true'
p1479
aS'yes'
p1480
aS'yes i am omg'
p1481
aS'hey can u bff me alli elkins i love u'
p1482
aS'great'
p1483
aS'good i went swimming'
p1484
aS'good thxs'
p1485
aS'yes i m interested'
p1486
aS'thanks'
p1487
aS'yes'
p1488
aS'trye'
p1489
aS'yesssss'
p1490
aS'yesss'
p1491
aS'good for you'
p1492
aS'cool i can wait'
p1493
aS'ilysm morgan'
p1494
aS'sure'
p1495
aS'anytime'
p1496
aS'yes'
p1497
aS'okay'
p1498
aS'can you follow me on musically'
p1499
aS'do i have to order it'
p1500
aS'send me a pic of u so i know ur real'
p1501
aS'yeah but sry im not aloud to wear makeup but thx for offering ur so nice'
p1502
aS'good morning my favorite musically star'
p1503
aS'ur so pretty'
p1504
aS'my day was ok was yours good'
p1505
aS'yess'
p1506
aS'yeah that s cool thanks for replying'
p1507
aS'good'
p1508
aS'sure'
p1509
aS'can u bff me on musical ly pls'
p1510
aS'yes thank you so much'
p1511
aS'oh okay'
p1512
aS'thanks i ll totally buy it asap'
p1513
aS'hello'
p1514
aS'cool i didn t think this would work'
p1515
aS'good thank you and you'
p1516
aS'is this morgan from musically if you are i love watching your videos you re so pretty your like one of mine inspiration i would love if you would bff me on musically if not it s totally cool'
p1517
aS'hi i m a big fan of yours and i ve been watching your musicallys for a while i don t know if you ll ever see this but thank you for being who your are my musically is genna'
p1518
aS'yes i would love that bc i am about to start makeup'
p1519
ag22
aS'good'
p1520
aS'yea'
p1521
aS'yes i am very interested i have always loved how u did ur make up'
p1522
aS'hey'
p1523
aS'can i ask a question'
p1524
aS'ya'
p1525
aS'hey i m a big fan'
p1526
aS'yes'
p1527
aS'i love your musicalys and i think u super pretty luv uuuu'
p1528
aS'good u'
p1529
ag22
aS'what does the little case include in side of it'
p1530
aS'yes'
p1531
aS'my day was amazing how was yours'
p1532
aS'hi morgan ilysm i hope to meet u one day'
p1533
aS'sorry i won t be able to purchase this kit now but maybe another'
p1534
aS'yesss'
p1535
aS'yes'
p1536
aS'hi i know you probably got other people to text but i m nyaisha and i am a really really really big fan'
p1537
aS'yes'
p1538
aS'hey'
p1539
aS'cool i might just have to get one'
p1540
aS'hey morgan i know that your probably getting a lot of text i just wanted to say that you are my favorite muser and yours soooo pretty i m a really big fan'
p1541
aS'forrest'
p1542
aS'omg hey'
p1543
aS'good and yours'
p1544
aS'hi'
p1545
aS'yea'
p1546
aS'aww'
p1547
aS'hey i m a musicly fan i have been following you and only crowned musers because i want to be like that someday i have a faint relationship with ms pacman i haven t posted anything yet because i d really like some help i feel like if i get tips and tricks i can be like you you are amazing to me i have followers already and i haven t posted anything but a picture an bio and i ve had this account for now days i think this is good lol i d love for you to respond maybe a freindship shoutout follow ik you probably hate people asking for things but i feel with a little boost from you i could have my dream come true have a nice day lucia'
p1548
aS'no'
p1549
aS'ok so ur sixteen'
p1550
aS'yes'
p1551
aS'sure'
p1552
aS'sure'
p1553
aS'yes'
p1554
aS'yes please'
p1555
aS'hi is this morgan katherine from musicaly'
p1556
aS'yas i am'
p1557
aS'yea omg i am crying'
p1558
aS'good'
p1559
aS'yup luv you lots'
p1560
aS'i shall talk to you tomorow'
p1561
aS'hi this is leah i m i watch ur music lys'
p1562
aS'omg yes i love you sooo much your such an inspiration to me'
p1563
aS'hey'
p1564
aS'hi'
p1565
aS'k'
p1566
aS'nvm'
p1567
aS'love you'
p1568
aS'sound great'
p1569
aS'i m interested'
p1570
aS'haha ok i didn t think that it was to expensive but i m still gonna buy it'
p1571
aS'hey'
p1572
aS'yes'
p1573
aS'are you having any meet ups'
p1574
aS'i m really sick and hope you had a great time'
p1575
aS'ok i will watch it and like'
p1576
aS'hey'
p1577
aS'answerd'
p1578
aS'oh cool'
p1579
aS'do you actually respond to people morgan'
p1580
aS'hey is this morgan'
p1581
aS'hi'
p1582
aS'hi'
p1583
aS'are you real or a computer'
p1584
aS'that would be great'
p1585
aS'yes i d love that'
p1586
aS'thank you'
p1587
aS'is this really u tbh'
p1588
aS'hey morgan this is hope i m a fan from ur muscially s and i just wanted to say ur really pretty and ur great at musicallys could u bff me'
p1589
aS'who is this'
p1590
aS'sure'
p1591
aS'hiiiiiii i love you sm i don t think you will see this but ilysm'
p1592
aS'is this morgan'
p1593
aS'hi'
p1594
aS'good'
p1595
aS'yes'
p1596
aS'omg is it really you if it is i m your bigest fan i like all your musical lys and i would love to meet you in person plz answer this'
p1597
aS'awe'
p1598
aS'yes yes'
p1599
aS'sounds good thanks'
p1600
aS'anytime ily'
p1601
aS'can u add me on snapchat dankmaddii'
p1602
aS'i liked all of ur musicals'
p1603
aS'hey if this is morgan i am a really big fan and i love u so much u are really good at musical ly'
p1604
aS'yea'
p1605
aS'yess'
p1606
aS'i love how you re smiling in your musicallys more'
p1607
aS'hi'
p1608
aS'will u ever be doing any live ly'
p1609
aS'hi i am your biggest fan i hope that you text back and i tried to call you but it said that it was an error so yeah i love you i hope we can be best friends'
p1610
aS'sure'
p1611
aS'you re so pretty and it was good'
p1612
aS'hi'
p1613
aS'so can we talk right now'
p1614
aS'morgan'
p1615
aS'great how was urs'
p1616
aS'thank you'
p1617
aS'omg yes'
p1618
aS'yeah it would be great'
p1619
aS'omg ur so amazing'
p1620
aS'k'
p1621
aS'ok'
p1622
aS'hey'
p1623
aS'it was amazing'
p1624
aS'hey'
p1625
aS'heyy'
p1626
aS'yes i m interested'
p1627
aS'hey i am like one of your biggest fans i love you so much please bff me on musically'
p1628
aS'how much'
p1629
aS'hi my name is kaylynne i love your musical lys it would mean the world if you would please follow me back on musical ly kay hunley'
p1630
aS'okay thank you'
p1631
aS'hey morgan my name is chloe you are so pretty and great at music ly you are so inspiring because you be your self in the videos i love you'
p1632
aS'hi'
p1633
aS'can you follow me on musically that would be my biggest dream and it would make my day'
p1634
aS'hwy'
p1635
aS'hello i m a big fan of you your so gorgeous'
p1636
aS'yes i am'
p1637
aS'no'
p1638
aS'is there and eyebrow pencil or gel included'
p1639
aS'cool'
p1640
aS'hi i m grace and i love ur musical ly'
p1641
aS'ya i m your number one fan'
p1642
aS'my day was great'
p1643
aS'also thad not my number'
p1644
aS'good'
p1645
aS'hi'
p1646
aS'hi'
p1647
aS'how does this work'
p1648
aS'i m interested'
p1649
aS'i am intrested'
p1650
aS'yes'
p1651
aS'cool i meant'
p1652
aS'of course but how much does it cost'
p1653
aS'hi'
p1654
aS'yes'
p1655
aS'i am a big fan can you follow me on musical ly mileynicole'
p1656
aS'thank you so much'
p1657
aS'it was good glad you had fun'
p1658
aS'hey'
p1659
aS'no sorry o dont wear makeup'
p1660
aS'yes how much'
p1661
aS'hi big fan'
p1662
aS'good morning morgan'
p1663
aS'yeah okay thanks'
p1664
aS'hiii im a big fan'
p1665
aS'yes'
p1666
aS'aww so cute it was good thanks for asking'
p1667
aS'yae'
p1668
aS'hello'
p1669
aS'yea how were the animals'
p1670
aS'and yeah'
p1671
aS'omg i am your biggest fan i hope u reply back i have pics of u on my wall not like stalker i have a wall of my favorite music ly people and u are one of them but i think your really pretty and i really really hope u rely back and my music ly accounts are oliviag or oliviag i love u so much'
p1672
aS'tbh your are very pretty and you enspire me'
p1673
aS'im not allowed to wear alot of makeup'
p1674
aS'no thanks'
p1675
aS'hi ilysm i m a fan of urs'
p1676
aS'asf'
p1677
aS'so pretty'
p1678
aS'my day was awesome'
p1679
aS'hi is this morgan'
p1680
aS'lexi j moore'
p1681
aS'i think u r hacked'
p1682
aS'i m gianna'
p1683
aS'true'
p1684
aS'hey is this morgan'
p1685
aS'you are so pretty and awesome im a huge fan'
p1686
aS'hi plz answer'
p1687
aS'yesssss'
p1688
aS'what are you doing'
p1689
aS'my day was good thanks'
p1690
aS'awesome i ve had a great day thx for asking'
p1691
aS'hi'
p1692
aS'yup'
p1693
aS'aww so cut lucky'
p1694
aS'no thank you i m young so i don t do makeup that much'
p1695
aS'it was good'
p1696
aS'pretty'
p1697
aS'ok'
p1698
aS'catfished'
p1699
aS'good how bout yours'
p1700
aS'wyd'
p1701
aS'good'
p1702
aS'hi'
p1703
aS'yeah'
p1704
aS'hey morgan'
p1705
aS'htx kylieee'
p1706
aS'where do i get it'
p1707
aS'horrible'
p1708
aS'yes i am thank you'
p1709
aS'i love it'
p1710
aS'hey morgan i am such a huge fan and i love your music lys'
p1711
aS'would it cost'
p1712
aS'yes i am'
p1713
aS'shur'
p1714
aS'i don t really use a whole lot of makeup'
p1715
aS'you are sooo pretty'
p1716
aS'yes'
p1717
aS'hey'
p1718
aS'yes'
p1719
aS'mine was amazing'
p1720
aS'who are you'
p1721
aS'yes when will i get it'
p1722
aS'hey is this morgan'
p1723
aS'yes i loooove starbucks'
p1724
aS'yes thank u sooo very much'
p1725
aS'hey i m a really big fan of you and i wanted to tell you that you are gorgeous plz follow me ashlynftaylor'
p1726
ag22
aS'i will like them'
p1727
aS'aww what kind of animals my day was great how was yours'
p1728
aS'sure'
p1729
aS'yup'
p1730
aS'good'
p1731
aS'my'
p1732
aS'damn'
p1733
aS'yes please'
p1734
aS'is that the only response you have'
p1735
aS'happy to hear to'
p1736
aS'yess'
p1737
aS'no'
p1738
aS'your pretty'
p1739
aS'morgan hi'
p1740
aS'i like them was there one or two'
p1741
aS'hey morgan'
p1742
aS'hello i love u plz follow me on musically my name is linda and i m your biggest fan'
p1743
aS'that s so cute my day is okay tho'
p1744
aS'is it really you'
p1745
aS'yea'
p1746
aS'yea ilysm i m such a big fan'
p1747
aS'hi omg ily'
p1748
aS'hey i m one of your biggest fans on musically so hi'
p1749
aS'hiii'
p1750
aS'hello'
p1751
aS'yes'
p1752
aS'yes'
p1753
aS'no thanks'
p1754
aS'thats a rlly good pic but i am not interested'
p1755
aS'omg so you are years old is this really you morgan'
p1756
aS'yes i am interested'
p1757
aS'how are you'
p1758
aS'omg hi'
p1759
aS'i m not tring to be annoying but i m just wonder what state do u live in'
p1760
aS'okay thanks'
p1761
aS'btw ilysm and u are soo pretty'
p1762
aS'no'
p1763
aS'what who is this'
p1764
aS'hi'
p1765
aS'it s really good to'
p1766
aS'good how ab u'
p1767
aS'sure'
p1768
aS'hey morgan i love you so much and i added you on snapchat you are so beautiful it isn t fair i love your makeup'
p1769
aS'can u follow me on musical ly'
p1770
aS'who is this'
p1771
aS'hey i m kyra'
p1772
aS'cool what kind of animals my day was good how about yours'
p1773
aS'your welcome'
p1774
aS'yes'
p1775
aS'thank you ily'
p1776
aS'hey could u please answer me i m one of you re biggest fans and i love u so much'
p1777
aS'umm i didn t say yes'
p1778
aS'yes plz'
p1779
aS'hi i am a big fan of yours if you end up answering i do have one question what got you into being a muser and how did you get so popular being one'
p1780
aS'sounds awesome i cant wait'
p1781
aS'yeah i m interested'
p1782
aS'yes i am interested but does it cost money'
p1783
aS'hello'
p1784
aS'hi i m a huge fan'
p1785
aS'hi morgan'
p1786
aS'hiiiii'
p1787
aS'good we went to my friends house'
p1788
aS'i m interested'
p1789
aS'yes'
p1790
aS'good what about you'
p1791
aS'musically'
p1792
aS'hi'
p1793
aS'hi i am a huge fan and hope you can follow me or do a duet with me love u'
p1794
aS'no thanks i don t use makeup'
p1795
aS'omg yess of course'
p1796
aS'hey'
p1797
aS'are you yeas old'
p1798
aS'yes'
p1799
aS'are u morgan from musical ly'
p1800
aS'good'
p1801
aS'good'
p1802
aS'ok i ll go like them'
p1803
aS'my day was good how about yours'
p1804
aS'yeah omg i m about to cry'
p1805
aS'no thanks'
p1806
aS'my day was great i went swimming'
p1807
aS'yes i m interested'
p1808
aS'yes'
p1809
aS'hey'
p1810
aS'btw luv you'
p1811
aS'is this really morgan or is this like a machine'
p1812
aS'your fast to respond'
p1813
aS'no'
p1814
aS'very good how about you'
p1815
aS'omg you are so pretty and you are a great role model to me and i really love your musicallys and you re just the best'
p1816
aS'how much is it thought'
p1817
aS'my day was great with my friends'
p1818
aS'my acc is teryn heninger'
p1819
aS'hi'
p1820
aS'okay thank you so much morgan'
p1821
aS'what'
p1822
aS'thank you tho'
p1823
aS'what s going on'
p1824
aS'i don t wear makeup but thank you for the offer'
p1825
aS'thanks'
p1826
aS'hi i m a big fan of all ur musical ly'
p1827
aS'can you give it to me for less i m not really that rich'
p1828
aS'i m interested'
p1829
aS'it s fine i probably won t ever be like u and u will never notice me but that s ok'
p1830
aS'yesss it does'
p1831
aS'this is dania my muscial ly lovebirds and i am a huge fan your so gorgeous im going in to th grade but i just love your muscial lys'
p1832
aS'hey morgan'
p1833
aS'yes i am'
p1834
aS'very interested'
p1835
aS'on musically'
p1836
aS'hi this is a huge fan'
p1837
aS'very cool'
p1838
aS'okay well i m going to bed goodnight morgan am i allowed to text you tomorrow'
p1839
aS'sure does i love starbucks'
p1840
aS'ok'
p1841
aS'how do i stop seeing these messages'
p1842
aS'can you follow me'
p1843
aS'sure'
p1844
aS'omg hi'
p1845
aS'no thx'
p1846
aS'stop'
p1847
aS'hey whats ur snapchat'
p1848
aS'yes plz'
p1849
aS'oh sorry i don t have any money for that i wish but thanks for the info'
p1850
aS'yes i m'
p1851
aS'you re welcome'
p1852
aS'yea thx'
p1853
aS'i m not'
p1854
aS'yeah'
p1855
aS'how cute'
p1856
aS'on musically'
p1857
aS'can i get it for free'
p1858
aS'how'
p1859
aS'good'
p1860
aS'omg how much is it this is such a opportunity'
p1861
aS'aw thanks love you to'
p1862
aS'good thanks'
p1863
aS'how many days will it take to me to get it'
p1864
ag22
aS'omg morgan ur so beautiful'
p1865
aS'i m vanessa and i love watching ur musicallys everyday'
p1866
aS'yeah thanks'
p1867
aS'hey'
p1868
aS'good'
p1869
ag22
aS'ok'
p1870
aS'yes'
p1871
aS'thank you'
p1872
aS'my name is aundria'
p1873
aS'can you plz bff me in musically it s ok if you don t want to'
p1874
aS'test from ruben'
p1875
aS'aww it was good'
p1876
aS'yes'
p1877
aS'hi i m such a big fan'
p1878
aS'good who s this'
p1879
aS'ya'
p1880
aS'hi morgan your amazing ily'
p1881
aS'ok i was wondering if you can do it for my sister'
p1882
aS'okay'
p1883
aS'sure how much does it cost'
p1884
aS'i like ur music lys'
p1885
aS'btw love your musicallys'
p1886
aS'good'
p1887
aS'sounds great'
p1888
aS'hey'
p1889
aS'yes'
p1890
aS'kk thnx so much'
p1891
aS'ok'
p1892
aS'i don t really use makeup but sounds cool'
p1893
aS'ok hello how are you omg'
p1894
aS'no'
p1895
aS'yes but how much would it cost'
p1896
aS'yess'
p1897
aS'yes'
p1898
aS'is this morgan katherine'
p1899
aS'no'
p1900
aS'yea'
p1901
aS'hey i love u how do you do your makeup and products do you use btw my name is rayne'
p1902
aS'good and yours'
p1903
aS'i got high all day and now i m about to bake a cake'
p1904
aS'you re so beautiful holy'
p1905
aS'good'
p1906
aS'stop texting me please'
p1907
aS'yes i m i love you so much tbh your like goals'
p1908
aS'okay thank you i loked'
p1909
aS'heyy'
p1910
aS'yes'
p1911
aS'did you read the message'
p1912
aS'yess how'
p1913
aS'please remove this number from your list'
p1914
aS'yeah sure'
p1915
aS'call me'
p1916
aS'my address do u need it i will give it if needed from u'
p1917
aS'is this really you'
p1918
aS'hi'
p1919
aS'ok but my mom said no'
p1920
ag22
aS'ok'
p1921
aS'no thank you my parents wont let me sorry i really wanted it tho sorry'
p1922
aS'no and can u stop updating'
p1923
aS'hi'
p1924
aS'okay can we facetime'
p1925
aS'of course'
p1926
aS'hello'
p1927
aS'hey'
p1928
aS'yea i love you so much'
p1929
aS'oh i was thinking april'
p1930
aS'that looks good is it good'
p1931
aS'yes'
p1932
aS'im about to cry'
p1933
aS'hi'
p1934
aS'good thanks for asking'
p1935
aS'yes'
p1936
aS'hi'
p1937
aS'yeahhh'
p1938
aS'np and if your other followers didn t tell you already thanks for being so nice to your followers'
p1939
aS'so pretty'
p1940
ag22
aS'hello'
p1941
aS'i m sorry'
p1942
aS'good wbu'
p1943
aS'i love you so much'
p1944
aS'uh sure'
p1945
aS'sup'
p1946
aS'can u go live on musical ly tmm when u get the chance to'
p1947
aS'thank you so much'
p1948
aS'thank you'
p1949
aS'hello'
p1950
aS'yes'
p1951
ag22
aS'you re welcome'
p1952
aS'good thank you sadly i lost my mom this morning'
p1953
aS'no'
p1954
aS'good'
p1955
aS'sure'
p1956
aS'yes'
p1957
aS'mine was good thanks for asking'
p1958
aS'yes'
p1959
aS'i would like too but i m very young and i m not allowed but you look so pretty with or with out it maybe one day but i can post on all my social medias of your make up kit and maybe they would be interested'
p1960
aS'hey'
p1961
aS'yes'
p1962
aS'omg thank you so much'
p1963
aS'good awww'
p1964
aS'sure i would love to have it'
p1965
aS'hi'
p1966
aS'yessssssss'
p1967
aS'yep that s cool'
p1968
aS'awww and good thnx i love animals'
p1969
aS'omg yes'
p1970
aS'hi'
p1971
aS'lol right'
p1972
aS'hey i love ur vids on musical ly and i hope if u can text every day'
p1973
aS'no'
p1974
aS'would you marry me just because i m a huge fan and you slay'
p1975
aS'yee'
p1976
aS'how much is it'
p1977
aS'why did you wanna leak your number to so many people'
p1978
aS'hi'
p1979
aS'if you answer this i will literally die of happiness i love you your videos and everything about you from emma'
p1980
aS'is really good'
p1981
aS'can i ask you something'
p1982
aS'can t wear makeup'
p1983
aS'lol yes it does'
p1984
aS'people say you got hacked'
p1985
aS'good how was yours'
p1986
aS'cool'
p1987
aS'np what s your favorite color'
p1988
ag855
aS'i would be interested but how much it is'
p1989
aS'yeah thanks'
p1990
aS'my day was good how was your day'
p1991
aS'also i can t wait to get your new makeup kit when it comes out'
p1992
aS'yes'
p1993
aS'yes very intrested'
p1994
aS'my day was good do you get a pet today'
p1995
aS'can you please bff me on music ly or spam'
p1996
aS'awww so cute'
p1997
aS'so how are you'
p1998
aS'my day was bad'
p1999
aS'how did you get your crown'
p2000
aS'yes please'
p2001
aS'what kind'
p2002
aS'yay l m so happy'
p2003
aS'yea'
p2004
aS'how are you today'
p2005
aS'yes i would love to have one'
p2006
ag22
aS'omg you texted me i love you'
p2007
aS'yes'
p2008
aS'yassss'
p2009
aS'yes but do i need to pay'
p2010
aS'is this really u'
p2011
aS'yes'
p2012
aS'lmao'
p2013
aS'yes'
p2014
aS'yes'
p2015
aS'oh my gosh yes how can i do that'
p2016
aS'ya'
p2017
aS'nice how old are u'
p2018
aS'ya'
p2019
aS'awsome'
p2020
aS'i like your musical ly'
p2021
aS'it s me bray but you don t follow me'
p2022
aS'ok my name is sam'
p2023
aS'how are you'
p2024
aS'good what s your name'
p2025
aS'yes'
p2026
aS'hey is this morgan from musically'
p2027
aS'i can t'
p2028
aS'yes'
p2029
aS'hey is this morgankathrine'
p2030
aS'hi i m ur biggest ilysm'
p2031
aS'yes i am'
p2032
aS'why not'
p2033
aS'yes'
p2034
aS'yes'
p2035
aS'yes pls'
p2036
aS'yes'
p2037
aS'an update for what'
p2038
aS'yess'
p2039
aS'how this'
p2040
aS'yea thanks'
p2041
aS'yea but i m only'
p2042
aS'hi'
p2043
aS'yes'
p2044
aS'it was okay how was yours'
p2045
aS'hey'
p2046
aS'that s cool'
p2047
aS'thank you i love you so much'
p2048
aS'good have any advice for getting a macbook and saving up money'
p2049
aS'yep this is so awesome'
p2050
aS'wyd'
p2051
aS'yeeeeeesss'
p2052
aS'pretty good'
p2053
aS'hi morgan'
p2054
aS'yes please'
p2055
aS'who is this'
p2056
aS'good how was urs'
p2057
aS'ok i ll get it'
p2058
aS'it would be amazing if you answered'
p2059
aS'hi'
p2060
aS'so how many people are actually talking to you right now'
p2061
aS'hi i m such a big fan'
p2062
aS'heyyyy'
p2063
aS'good so glad you had a good day'
p2064
aS'yes please'
p2065
aS'yes'
p2066
aS'good and cool'
p2067
aS'yes omg hi'
p2068
aS'hey'
p2069
aS'can you follow me please'
p2070
aS'yeah'
p2071
aS'well i don t now yet let me think about it ok'
p2072
aS'sounds amazing'
p2073
aS'hey'
p2074
aS'where do u live'
p2075
aS'no'
p2076
aS'duet on musically too mckenna eddyy'
p2077
aS'good with a friend i haven t seen in almost a year'
p2078
aS'yes omg i love you so much'
p2079
aS'hai'
p2080
aS'pretty hope you respond'
p2081
aS'awwww and good'
p2082
aS'send me a picture for proof'
p2083
aS'wyd'
p2084
aS'ok hi i m one of your fans'
p2085
aS'ok'
p2086
aS'ya sure'
p2087
aS'this is a hack'
p2088
aS'okay'
p2089
aS'i m sorry i would rlly like to tho but i can t'
p2090
aS'sounds cool'
p2091
aS'hhhhh'
p2092
aS'good how was yours'
p2093
aS'my friend is not really sure though cause she experienced something like this'
p2094
aS'hey'
p2095
aS'hey is this morgankatherine'
p2096
aS'does it cost money'
p2097
aS'nah fam'
p2098
aS'how much does it cost'
p2099
ag22
aS'great i m camping'
p2100
aS'you re sooo pretty'
p2101
aS'yup'
p2102
aS'hey'
p2103
aS'yes i am'
p2104
aS'hey'
p2105
aS'good'
p2106
aS'oh well'
p2107
aS'hi'
p2108
aS'what s your fav song'
p2109
aS'how much is it'
p2110
aS'it depends how much it s costs'
p2111
aS'can t wait to get it'
p2112
aS'p s i am your number one fan'
p2113
aS'ya'
p2114
aS'hey morgan you are such a inspiration to me and i love every single one of your musical lys it would make my night if you text back thanks so much love youu'
p2115
aS'yes will u follow me on misically'
p2116
aS'hi'
p2117
aS'btw i ve liked all of your musical lys and it meant a lot when you accepted my follow request on your private account'
p2118
aS'how much is it'
p2119
aS'thank u'
p2120
aS'how old r u morgan'
p2121
aS'what do you get from starbucks'
p2122
aS'good'
p2123
aS'ok'
p2124
aS'adorable'
p2125
aS'i love your musical lys your so pretty'
p2126
aS'yeah'
p2127
aS'yes'
p2128
aS'yes'
p2129
aS'can i get it please it would mean the world to me'
p2130
aS'yay can t wait to see them'
p2131
aS'yes'
p2132
aS'yes'
p2133
aS'yep sounds good your musicallys rock'
p2134
aS'good ig'
p2135
aS'um never mind it s not working for some odd reason'
p2136
aS'hey i m a fan'
p2137
aS'hi i love you sooooooooo much i can t even explain it in words u are sooo pretty and talented in so many ways'
p2138
aS'yea i am'
p2139
aS'great how are you'
p2140
aS'that s super cool that ur doing that but i don t think my mom will let me get it but i m super proud of you'
p2141
aS'yeah i ll buy it'
p2142
aS'no thanks'
p2143
aS'pretty good i love ginny pigs'
p2144
aS'yes'
p2145
aS'good'
p2146
aS'hi omg i love you so much'
p2147
aS'yes i can t believe you answered you are my favorite muster ilysm'
p2148
aS'who is this'
p2149
aS'hey morgan'
p2150
aS'yeah'
p2151
aS'it s was good'
p2152
aS'hi you are amazing and supper pretty'
p2153
aS'it looks great'
p2154
aS'okay thank you for telling me'
p2155
aS'yep'
p2156
aS'can we facetime'
p2157
aS'hi morgan'
p2158
aS'i said no im starting to think your fake'
p2159
aS'hey i love your musically s'
p2160
aS'awe and it was good i had a question'
p2161
aS'omg i would love to'
p2162
aS'sure'
p2163
aS'yes its really pretty'
p2164
aS'i m gonna go check'
p2165
aS'it was good ilysm'
p2166
aS'good'
p2167
aS'okay'
p2168
aS'yes'
p2169
aS'yes'
p2170
aS'yes jk'
p2171
aS'yes of course'
p2172
aS'who is this'
p2173
aS'morgan'
p2174
aS'yes'
p2175
aS'what s your favorite drink at starbucks'
p2176
aS'you are suchh an inspiraton yes'
p2177
aS'can i text with you right now'
p2178
aS'yep'
p2179
aS'do you have snapchat'
p2180
aS'sup'
p2181
aS'hello'
p2182
aS'ya thanks how old t u'
p2183
aS'that s cool'
p2184
aS'hi my name is timberley i m one of your followers on musically and your musicallys inspired me to do musicallys and your every beautiful'
p2185
aS'yes that s very cool'
p2186
aS'hiiii i just want to see if the is actually u my name is ryann and yes i m a girl i have admired u for sooooooo long now and now since i can tell u that i am so happy you are one of the most sweetest and beautiful girls out there i literally like all your musical lys my musical ly is ryannholden i would cry if you gave me a shout out or a bff i understand if u can t bc i know i m probably not the only one who has said all of this so ya thanks i love you'
p2187
aS'this is so amazing i cant believe i am actually talking to you'
p2188
aS'hey'
p2189
aS'great now tht i got a text from you'
p2190
ag22
aS'also how much will the kit be'
p2191
aS'it was ok'
p2192
aS'good and that is so cute'
p2193
aS'yes i am'
p2194
aS'okay'
p2195
aS'i would love to thought but yeah i cant'
p2196
aS'yes'
p2197
aS'yes'
p2198
aS'yes'
p2199
aS'are you hacked just asking'
p2200
aS'good going to my ranch'
p2201
aS'okay'
p2202
aS'hi'
p2203
aS'hello my name is naomi i just wanted to say that i think you are really good at making musical ly s i think you are really pretty'
p2204
aS'oh'
p2205
aS'hi is this morgan katherine'
p2206
aS'it was good'
p2207
aS'thsts good'
p2208
aS'omg yes i am so interested'
p2209
aS'no but thanks im a boy'
p2210
ag22
aS'can you bff me on music ly'
p2211
aS'i love you morgan'
p2212
aS'if u ever get the chance to see this can u plz bff me on musically my username is tammy lover btw i love your musically u are pretty and ilysm'
p2213
aS'hi it and that would be great and i was also wondering if you could bff me'
p2214
aS'my day was good'
p2215
aS'is it u fr omgs i am a fan of your and your so gorgeous'
p2216
aS'yeah'
p2217
aS'hi'
p2218
aS'sounds great'
p2219
aS'okay can you try to in a few hours'
p2220
aS'hey'
p2221
aS'awww mine was nice thank you'
p2222
aS'good how was yours'
p2223
aS'yes'
p2224
aS'much'
p2225
aS'oh ok i get it now'
p2226
ag22
aS'hello'
p2227
aS'okay'
p2228
aS'yes i am'
p2229
aS'good i ll like them all'
p2230
aS'where do i buy it'
p2231
aS'yes'
p2232
aS'so lucky'
p2233
aS'why'
p2234
aS'yes'
p2235
aS'hi'
p2236
aS'good i want with my mom to main event and it was great'
p2237
aS'yes'
p2238
aS'ok ily'
p2239
aS'not much of a life for me'
p2240
aS'i m one of your biggest fans my musicly is princess rlny'
p2241
aS'i m sorry i would love it but i m not spending that much money on make up in sorry but ima have to turn that offer down'
p2242
aS'yes'
p2243
aS'yes ma am'
p2244
aS'plz ik you will answer later but can u make me best fan forever so i can do duets with you or u can with me'
p2245
aS'yes i m interested'
p2246
aS'how muck money'
p2247
aS'yahh'
p2248
aS'omg i love you so much'
p2249
aS'hi i love you'
p2250
aS'i am totally interested'
p2251
aS'i feel like this is a computer doing all this so'
p2252
aS'cool mine was good'
p2253
aS'no thanks but thank you'
p2254
aS'okay i am excited'
p2255
aS'your awesome'
p2256
aS'umm how much'
p2257
aS'good night i love you'
p2258
aS'thank u'
p2259
aS'good yours'
p2260
aS'no'
p2261
aS'yes'
p2262
aS'yea that sounds really cool thank you'
p2263
aS'i am not paying for a makeup kit no offense'
p2264
aS'my day was great'
p2265
aS'good'
p2266
aS'is this morgan'
p2267
aS'hi'
p2268
aS'is this morgan katherine'
p2269
aS'yes'
p2270
aS'omggggg you respond'
p2271
aS'hi omg i love you so much your so pretty'
p2272
aS'how can i get it'
p2273
aS'yes i m interested'
p2274
aS'omg is this really morgan'
p2275
aS'well that s too much m mom will say no but thanks anyways morgan'
p2276
aS'is this really u please text me back please'
p2277
aS'so u would be able to ft'
p2278
aS'i just went to barnes and noble today and i bought the new book nerve it s also a movie coming out'
p2279
aS'good hbu'
p2280
aS'tbh your very pretty and goals'
p2281
aS'can you stop sending theses please'
p2282
aS'good can u please follow me on music ly'
p2283
aS'musical ly'
p2284
aS'good'
p2285
aS'is this morgan katherine'
p2286
aS'people say u are a model'
p2287
aS'hey'
p2288
aS'mean np'
p2289
aS'do you think that you could shout me out on musically or do a duet with me it would mean so much'
p2290
aS'yes'
p2291
aS'yesss'
p2292
aS'is this the real morgan'
p2293
aS'please'
p2294
aS'oh ok'
p2295
aS'yes'
p2296
aS'yes sounds cool thank you'
p2297
aS'good'
p2298
aS'morgan is this you'
p2299
aS'what does the smaller version include'
p2300
aS'that sounds really cool'
p2301
aS'hey'
p2302
aS'awww that s cute and my day is awesome'
p2303
aS'oh ok'
p2304
aS'awe thx i ll take a look at it'
p2305
aS'i m a guy'
p2306
aS'yes'
p2307
aS'okay'
p2308
aS'good how was yours'
p2309
aS'hey you re the best ever please respond back i love your musicallys btw'
p2310
aS'yup so what are you doing now'
p2311
aS'wyd'
p2312
aS'ok'
p2313
aS'yes'
p2314
aS'yes i am'
p2315
aS'hi is this katherine'
p2316
aS'can you follow me on musical ly'
p2317
aS'alright'
p2318
aS'yes'
p2319
aS'yes i d be incredibly interested'
p2320
aS'good i m in nashville at the ole opry'
p2321
aS'who is this'
p2322
aS'thanks'
p2323
aS'good'
p2324
aS'yay ok just making sure'
p2325
aS'i m your biggest fan i love youu so much your so pretty'
p2326
aS'i love all of your musical lys'
p2327
aS'i would love it'
p2328
aS'your my favorite muser tbh'
p2329
aS'great how about you'
p2330
aS'sorry that was my sister i m so glad you had a good day did you get the animal'
p2331
aS'yepp thx so much tbh this is really cool'
p2332
aS'you slayy'
p2333
aS'oh my well i m broke but maybe my dad will get it for me'
p2334
aS'yes'
p2335
aS'pretty good'
p2336
aS'wow thank u sooooo much that s really nice of u'
p2337
aS'i m getting a guinea pig'
p2338
aS'is this really morgan'
p2339
aS'are you single'
p2340
aS'good hub'
p2341
aS'k thx'
p2342
aS'cool'
p2343
aS'and good'
p2344
aS'test'
p2345
aS'omg thank you so much'
p2346
aS'your welcome is this really you'
p2347
aS'can you pls follow my musically or at least make a duet or like some of them pls my musically is amy'
p2348
aS'yeah'
p2349
aS'yes i really hope you respond it will make my dad your my favorite muser your so so pretty ily'
p2350
aS'you are so are so perfect and pretty'
p2351
aS'my day was good'
p2352
aS'yes'
p2353
aS'yay'
p2354
aS'when is ur birthday'
p2355
aS'heyy fan off musically'
p2356
aS'so do you morgan luv ya too'
p2357
aS'yes'
p2358
aS'hi'
p2359
aS'sounds great'
p2360
aS'hi'
p2361
aS'ya'
p2362
aS'i m interested'
p2363
aS'yes i m interested'
p2364
aS'yes'
p2365
aS'can you bff me on musical ly please'
p2366
aS'omg hii ilysm can u do a duet with me on musically kendallhein'
p2367
aS'we re do i get it'
p2368
aS'yes please how much is it ruben'
p2369
aS'yeah'
p2370
aS'okay thanks'
p2371
aS'okay i will'
p2372
aS'your'
p2373
aS'are u a scam because i think it s a scam'
p2374
aS'how much is it'
p2375
aS'hi'
p2376
aS'hi'
p2377
aS'yes'
p2378
aS'it was great thanks'
p2379
aS'how did you get big on musically'
p2380
aS'yes how old ru'
p2381
aS'hi morgan'
p2382
aS'morgan idk if ull see this but ur one of my favourite musers and'
p2383
aS'yes it dose'
p2384
aS'my muser name is rylee arnett'
p2385
aS'yeah can you add me on snapchat'
p2386
aS'i got a baby sister'
p2387
aS'good morning'
p2388
aS'i am not very fortunate'
p2389
aS'i might go check it out'
p2390
aS'it was great'
p2391
aS'hey katherine i really hope u reply'
p2392
aS'yes the would be awesome'
p2393
aS'yes'
p2394
aS'really wow i was just wondering because people keep saying you were hacked and that you gave out the wrong number'
p2395
aS'wassup morgan you are very good at musically s and good at your makeup and eyelashes pro you always be making some days idk why but you sound nice and i wish you get back at me but yah if you do u mad my dad ight'
p2396
aS'yes i m interested'
p2397
aS'your musically are awesome'
p2398
aS'hey'
p2399
aS'hey is this morgan katherine from musically'
p2400
aS'thanks i ll get one'
p2401
aS'hey'
p2402
aS'yeah r u texting me or everybody right now'
p2403
aS'good'
p2404
aS'your some sort of robot because your not answering any of my question'
p2405
aS'ur so pretty'
p2406
aS'it was amazing lol'
p2407
aS'good'
p2408
aS'yea sure'
p2409
aS'like am i seriously texting morgan'
p2410
aS'yes'
p2411
aS'good'
p2412
aS'everyone thinks you were hacked'
p2413
aS'okay'
p2414
aS'yes of course'
p2415
aS'hola'
p2416
aS'yes'
p2417
aS'yes'
p2418
aS'yes'
p2419
aS'hi'
p2420
aS'thanks looking forward to getting it'
p2421
aS'yes'
p2422
aS'how much'
p2423
aS'yes'
p2424
aS'how cute'
p2425
aS'don t text me'
p2426
aS'it was good hbu'
p2427
aS'yes'
p2428
aS'yes'
p2429
aS'this is fake'
p2430
aS'yes'
p2431
aS'ok thank'
p2432
aS'hiya there you re so pretty and amazing and i love you'
p2433
aS'morgan'
p2434
aS'hey'
p2435
aS'yes'
p2436
aS'i think you are sooooo pretty'
p2437
aS'my day was good got my sister a kylie jenner lip kit for her birthday but she guessed what it was so i gave it to her and i am going to florida tomorrow how was ur day'
p2438
aS'ok thank you i ll be sure to buy it'
p2439
aS'hey'
p2440
aS'hey morgan'
p2441
aS'yay yes'
p2442
aS'yessssss'
p2443
aS'it was good'
p2444
aS'thanks'
p2445
aS'cool'
p2446
aS'yes'
p2447
aS'ima bout to cry omg i m so happy right now'
p2448
aS'good'
p2449
aS'yes i am interested'
p2450
aS'good'
p2451
aS'hey i am one of ur biggest fans call me'
p2452
aS'cool i m super jealous of how gorgeous you are like for real'
p2453
aS'are you sure i thought you had an i phone'
p2454
aS'okay thank you'
p2455
aS'hi'
p2456
aS'yes'
p2457
aS'good thanks'
p2458
aS'how r u'
p2459
aS'yea'
p2460
aS'yes'
p2461
aS'i loved your last musically'
p2462
aS'please'
p2463
aS'yes but would it cost money'
p2464
aS'no i meant'
p2465
aS'please'
p2466
aS'good'
p2467
aS'awesome thanks'
p2468
aS'good but i know this isn t her'
p2469
aS'do u know my name'
p2470
aS'yes'
p2471
aS'my day was fine how was yours'
p2472
aS'hey can i ask you something'
p2473
aS'it was amazing thanks for asking'
p2474
aS'hello'
p2475
aS'yeah'
p2476
aS'yea'
p2477
aS'yes'
p2478
aS'i m going to order tomorrow'
p2479
aS'sure'
p2480
aS'you are so pretty'
p2481
aS'hello can you'
p2482
aS'ok thanks'
p2483
aS'yeah'
p2484
aS'your gorgeous'
p2485
aS'yes'
p2486
ag22
aS'hi'
p2487
aS'but how'
p2488
aS'sure'
p2489
aS'yes'
p2490
aS'who are you'
p2491
aS'lucky u got star bucks'
p2492
aS'i am your boggest fan ever'
p2493
aS'good'
p2494
aS'good'
p2495
aS'yup'
p2496
aS'but i believe it'
p2497
aS'yes'
p2498
aS'morgan'
p2499
aS'i love your musically and you re gorgeous'
p2500
aS'hey'
p2501
aS'your the best'
p2502
aS'great'
p2503
aS'yes'
p2504
aS'how long is it for a limited time'
p2505
aS'yes how much is it because i am only'
p2506
aS'i love you soo muchh'
p2507
aS'how s your day going'
p2508
ag22
aS'and my name is blake yes i am a girl can you check my musically page it s blake ec'
p2509
aS'can you do the duet for show it to my mom and told her she s wrong'
p2510
aS'yes'
p2511
aS'oh ok well i ll try to get it in the next couple weeks'
p2512
aS'yes i m very interested'
p2513
aS'yes'
p2514
aS'that look soo good'
p2515
aS'aaaaawwww it s so cut my day was good'
p2516
aS'maybe'
p2517
aS'yes'
p2518
aS'hi'
p2519
aS'yes'
p2520
aS'yes'
p2521
aS'omg yes how much money is it'
p2522
aS'so i will support any time'
p2523
aS'i love u soo much'
p2524
aS'yes'
p2525
aS'hey is this morgan katherine well i love your musical ly and i just wanted you to know'
p2526
aS'yes'
p2527
aS'yes'
p2528
aS'hey morgan'
p2529
aS'can u follow me on musiclly pls my account is lys'
p2530
aS'ill be the first to like'
p2531
aS'heey'
p2532
aS'please don t text me'
p2533
aS'i m'
p2534
aS'heyyy'
p2535
aS'i would be so happy if you send me that makeup kit'
p2536
aS'plzzzzzz'
p2537
aS'is this only going to be for limited time'
p2538
aS'did you ever get a meet and greet set up'
p2539
aS'i m a boy'
p2540
aS'ok sounds good and your so pretty'
p2541
ag22
aS'hey morgan i am such a big fan'
p2542
aS'sure'
p2543
aS'no thanks but thank u for offering'
p2544
aS'i m sry i didn t know i had a message'
p2545
aS'i lov ur musically s you re so good'
p2546
aS'okay that sounds awesome how much would it be'
p2547
aS'the messages cut off what do you need me to do'
p2548
aS'yes of course i m interested and you look beautiful'
p2549
aS'good'
p2550
aS'the lipstick you are wearing in the picture is that the lip stick that comes in the kit'
p2551
aS'hi'
p2552
aS'hii'
p2553
aS'no sorry'
p2554
aS'really'
p2555
aS'good'
p2556
aS'ok your fake if you don t follow me'
p2557
aS'omg hi is this morgan'
p2558
aS'huge fan'
p2559
aS'yes'
p2560
aS'good and so cute'
p2561
aS'yes i would love it'
p2562
aS'ok'
p2563
aS'so cute'
p2564
aS'good'
p2565
aS'ok'
p2566
aS'i m in love with your hair it make my day if you texted back'
p2567
aS'no not really'
p2568
aS'sure'
p2569
aS'this'
p2570
aS'no problem'
p2571
aS'omg i love y u so much your so pretty'
p2572
aS'hey'
p2573
aS'good'
p2574
aS'yeah'
p2575
aS'yea i m interested'
p2576
aS'yes'
p2577
aS'yes'
p2578
aS'how much is it'
p2579
aS'yes'
p2580
aS'yes'
p2581
aS'u there'
p2582
aS'sure'
p2583
aS'yes i am interested in it thanks so much'
p2584
aS'sure'
p2585
aS'yes a little'
p2586
aS'my musical ly is gyzell'
p2587
aS'sure why not'
p2588
aS'hi'
p2589
aS'well maybe next year because i m not old enough'
p2590
aS'it was good'
p2591
aS'thank you'
p2592
aS'good i am in orlando what are you holding'
p2593
aS'oh omg hi'
p2594
aS'yeah'
p2595
aS'hi morgan'
p2596
aS'sure'
p2597
aS'yes'
p2598
aS'how much'
p2599
aS'hey how are you'
p2600
aS'hey i m one of your music ly fans'
p2601
aS'can you bff my musically account'
p2602
aS'yes'
p2603
aS'when is your birthday'
p2604
aS'that would be awesome'
p2605
aS'you re so good at musically and you re so pretty'
p2606
aS'yes please'
p2607
aS'omg yes'
p2608
aS'ilysm'
p2609
aS'yayyyyy'
p2610
aS'hi i love you'
p2611
aS'thank u i might get one for my birthday on agusut'
p2612
aS'yes'
p2613
aS'k'
p2614
aS'sure'
p2615
aS'that s good'
p2616
aS'good i had camp today tho'
p2617
aS'mine was good'
p2618
aS'can you follow me back'
p2619
aS'why would you ever give your phone number out i mean i love you and all but not the best idea i mean it s your decision so do what ever you please love you'
p2620
aS'can u txt in musically is the box there cuz it s not for me plz help'
p2621
aS'i didn t do anything today'
p2622
aS'makeup kit'
p2623
aS'yea'
p2624
aS'how about u'
p2625
aS'yes'
p2626
aS'good'
p2627
aS'my day was good'
p2628
aS'hi'
p2629
aS'hello'
p2630
aS'hi'
p2631
aS'cool thx'
p2632
aS'yes very'
p2633
aS'i sure will'
p2634
aS'hi why are you the best'
p2635
aS'yes'
p2636
aS'sounds awesome i can t wait'
p2637
aS'ik cool'
p2638
aS'no brushes'
p2639
aS'ok thanks for the info'
p2640
aS'aww cutee my days good lol'
p2641
aS'my user is iluvtuttlez for instagram'
p2642
aS'yeah sure'
p2643
aS'gtg'
p2644
aS'hi'
p2645
aS'yeah'
p2646
aS'hey'
p2647
aS'yep'
p2648
aS'yeah'
p2649
aS'how are you'
p2650
aS'ok'
p2651
aS'yeah'
p2652
aS'thank uuu'
p2653
aS'aww and my day was good'
p2654
aS'um sure i guess'
p2655
aS'good'
p2656
aS'hey omg are you morgan and if you are omg please answer i love your musical ly'
p2657
aS'yesssss'
p2658
aS'plzzzzzz'
p2659
aS'mine was good you'
p2660
aS'hi i follow your musical ly i m a fan of yours'
p2661
aS'no stop txting me stupid'
p2662
aS'don t text this again please'
p2663
aS'hey'
p2664
aS'hey omg you are so gorgeous it would mean so much if i got a text back maybe even a follow or a duet my user name is lyndsey kate'
p2665
aS'boring i had to do chores all day it sucks'
p2666
aS'hi'
p2667
aS'u are my favorite person on musically ily u are so gorgeous'
p2668
aS'yes'
p2669
aS'hi'
p2670
aS'omg i love you so much plz text me back'
p2671
aS'i just want to know if you like tacos'
p2672
aS'cool and yes'
p2673
aS'sure'
p2674
aS'can you do a duet with me my name on musical ly is august'
p2675
aS'hey your my inspiration it would mean the world it you respond right'
p2676
aS'but i love your makeup so whatever it is i m interested'
p2677
aS'haha cool'
p2678
ag22
aS'sure'
p2679
aS'i m a fan'
p2680
aS'good hby'
p2681
aS'yep'
p2682
aS'yes'
p2683
aS'okay thank you'
p2684
aS'nice makeup'
p2685
aS'ya'
p2686
aS'yes omg i love you musically canwe talk'
p2687
aS'yes of course what are the deat s'
p2688
aS'can you bff me please'
p2689
ag22
aS'yes i m interested'
p2690
aS'hi is this morgan katherine from musical ly'
p2691
aS'yes'
p2692
aS'yea that sounds cool'
p2693
aS'yay your my inspiration'
p2694
aS'can we be freinds'
p2695
aS'thank you'
p2696
aS'is this katherine'
p2697
aS'good hbu'
p2698
aS'yes'
p2699
aS'okay thank you'
p2700
aS'my day was great just got home from cheer practice'
p2701
aS'sorry i don t wear makeup but thank you'
p2702
aS'yes'
p2703
aS'rown just like you'
p2704
aS'good how about yours'
p2705
aS'how are you i hope it was great'
p2706
aS'good'
p2707
aS'sure is this really you'
p2708
aS'yes i am'
p2709
aS'yay you answered but my day was good'
p2710
aS'it was good how about yours'
p2711
aS'can you make a duet with me'
p2712
aS'hii i am your biggest fan ilysm'
p2713
aS'hello'
p2714
aS'why do you keep saying that'
p2715
aS'ik'
p2716
aS'great thx'
p2717
aS'kk i will answer'
p2718
aS'can u plzz follow me'
p2719
aS'hi'
p2720
ag22
aS'hi'
p2721
aS'yes of course'
p2722
aS'good and awwwe they are cute'
p2723
aS'that d be a great idea and of course i would be interested how much'
p2724
aS'good'
p2725
aS'i m phone has no internet sorry i can watch it'
p2726
aS'yea can i call you'
p2727
aS'how much is it'
p2728
aS'depending how much it is how can i check it out'
p2729
aS'yes that s a really cool idea i m interested'
p2730
aS'great'
p2731
aS'okay'
p2732
aS'could you follow me'
p2733
aS'yes i am very'
p2734
aS'hey can you go and check my musical lys out plz i love yours your my favorite muser your really pretty and awesome'
p2735
aS'yeah amazing'
p2736
aS'what s up'
p2737
aS'of course by the way your gorgeous'
p2738
aS'why are you so cute'
p2739
aS'good and u'
p2740
aS'can i call u'
p2741
aS'hiiii'
p2742
aS'thxs the offered but i can t do make up because my parents to let me wear it'
p2743
aS'heyooo i m keli i follow you on musically'
p2744
aS'hey omg i love your musical ly'
p2745
aS'your so beautiful'
p2746
aS'hey'
p2747
aS'hey'
p2748
aS'exposed'
p2749
aS'i am interested'
p2750
aS'i want some'
p2751
aS'omg i m your fan i cryinh'
p2752
aS'my day was good yours'
p2753
aS'omg definitely'
p2754
aS'good'
p2755
aS'most definitely do i just forget about the other number'
p2756
aS'yeah'
p2757
aS'yes'
p2758
aS'good'
p2759
aS'you should follow me marka'
p2760
aS'no thanks i m a boy'
p2761
aS'how much is it'
p2762
aS'ok thank you'
p2763
aS'really'
p2764
aS'love u'
p2765
aS'omg is this really you'
p2766
aS'my question is that how old are u i think that u are'
p2767
aS'hey'
p2768
aS'good thanks for asking'
p2769
aS'yes'
p2770
aS'yes my name is caylin i really like your musical lys youre so gorgeous'
p2771
aS'yea'
p2772
aS'im interested'
p2773
aS'what are you doing today'
p2774
aS'yes'
p2775
aS'my day wasnt good but it doesn t matter'
p2776
aS'and blonde hair'
p2777
aS'i m really loving gameit come check it out it s a lot of fun http r gameit us pp c f act invite refid'
p2778
aS'ok thanks and yeah that sounds cool and can you try to follow me on musically at hannahbarker you are one of my favorite musers btw my name is hannah and i m years old'
p2779
aS'yes i m very interested'
p2780
ag22
aS'looks good where do you live'
p2781
aS'have u gone live before'
p2782
aS'good thanks'
p2783
aS'ok thx anyway'
p2784
aS'yes how'
p2785
aS'thankyou but i can t wear makeup sorry tho thankyou tho'
p2786
aS'yeah it does'
p2787
aS'yes'
p2788
aS'oh ok'
p2789
aS'ok'
p2790
aS'ok thanks do you have anymore information'
p2791
aS'hey i m s fan can i have a shotout please and ur cute'
p2792
aS'yes'
p2793
aS'yes i love you and ur so pretty'
p2794
aS'are you a robot'
p2795
aS'yes very pretty'
p2796
aS'cool u are so pretty'
p2797
aS'huge'
p2798
aS'omg morgan ilysm it would mean the world if you texted back'
p2799
aS'hey i m one of your fans on musical ly'
p2800
aS'how much does it cost'
p2801
aS'yes'
p2802
aS'hi'
p2803
aS'ok'
p2804
aS'sounds great pretty sure this is a bot but'
p2805
aS'luckyyy'
p2806
aS'truuee'
p2807
aS'good how was yours i have a question'
p2808
ag22
aS'ya for sure this is all legit right are u gonna get hacked'
p2809
aS'i ll think about it'
p2810
aS'please stop texting me'
p2811
aS'hello is this morgan katherine'
p2812
aS'sure but does it cost money and will i have to give out my personal info'
p2813
aS'good'
p2814
aS'hey morgan can you please send me a picture of you in a bikini'
p2815
aS'yes please'
p2816
aS'yea'
p2817
aS'thanks'
p2818
aS'my day was awesome thanks for asking'
p2819
aS'ok'
p2820
aS'thanks responding made my day'
p2821
aS'that seems so cool i ll check it out'
p2822
aS'how old are you'
p2823
aS'oh i would love the kit but does it cost anything'
p2824
aS'hey morgan you re such an inspiration i love all of your musicallys my musically is paigethompson ilysm girlie'
p2825
aS'how are you'
p2826
ag22
aS'omg yes please'
p2827
aS'yes i would be so interested'
p2828
aS'hi'
p2829
aS'my day was good i had a tumbling class and did my back handspring'
p2830
aS'good'
p2831
aS'hello'
p2832
aS'yes'
p2833
aS'plz answer me ilysfm'
p2834
aS'stop texting me'
p2835
aS'if you can facetime please let me know and i ll call you'
p2836
aS'i liked it'
p2837
aS'ok'
p2838
aS'alright thank you'
p2839
aS'aww and my day was good i m at the nail shop'
p2840
aS'hi did you read this message'
p2841
aS'hi i love your musicallys your super pretty'
p2842
aS'hi'
p2843
aS'your so pretty'
p2844
aS'hello'
p2845
aS'it was good'
p2846
aS'good i have the same day'
p2847
aS'hi'
p2848
aS'hi morgan i love u soooo much'
p2849
aS'nope'
p2850
aS'yesssss'
p2851
aS'hey'
p2852
aS'sure but how'
p2853
aS'oh no thanks but i don t wear makeup like that it makes me breakout but thanks for the offer'
p2854
aS'awww my day was good how about yours'
p2855
aS'please respond you are my idol you are so beautiful on the inside and out if you responded it would mean the world to me'
p2856
aS'your pretty'
p2857
aS'you re so beautiful'
p2858
aS'hey'
p2859
aS'yes please'
p2860
aS'ok i will check it out'
p2861
aS'you re fake'
p2862
aS'i m sorry but i can t but that because i don t have that type of money'
p2863
aS'not good my dog died me and cuzin crashed into my car'
p2864
aS'can u bff me on music ly please'
p2865
aS'omg hello'
p2866
aS'sure'
p2867
aS'yes'
p2868
aS'yes'
p2869
aS'yes'
p2870
aS'you re so inspirational and i look up to you as a role model i m literally crying'
p2871
aS'my username is myladove'
p2872
aS'yes i would love to get it'
p2873
aS'yes'
p2874
aS'yes it mg that would be awesome'
p2875
aS'is this really morgan'
p2876
aS'hey i saw u on musical ly'
p2877
aS'it s going great'
p2878
aS'hi'
p2879
aS'morgan how do you deal with fuckboys bc i have one you actually probably know jacob thomson aka jt and he totally played me i just want to know how you deal with them'
p2880
aS'ok'
p2881
aS'it was good and awh so cute'
p2882
aS'thank you i wanted it cheaper anyways'
p2883
aS'yes'
p2884
aS'yes yes yes'
p2885
aS'yes'
p2886
aS'hi'
p2887
aS'how much is it but omg'
p2888
aS'r u there'
p2889
aS'hi morgan katherine you are so pretty and i love your musical ly s so much can i have a shout out please thank you soooooo much'
p2890
aS'thank you for responding it means so much to me you are so gorgeous and amazing'
p2891
aS'so cute mine was good'
p2892
aS'thank i can t wiat'
p2893
aS'hii yea sounds cool'
p2894
aS'hi'
p2895
aS'btw i m good'
p2896
aS'what'
p2897
aS'ya i think your musical lys are amazing you should post more often'
p2898
aS'how are you so gourges'
p2899
aS'omg how much is it'
p2900
aS'aww'
p2901
aS'can u follow me'
p2902
aS'yess'
p2903
aS'good'
p2904
aS'yay'
p2905
aS'how much'
p2906
aS'hi'
p2907
aS'cool'
p2908
aS'yes'
p2909
aS'yes i would be'
p2910
aS'sure'
p2911
aS'is this morgan'
p2912
aS'how much is it'
p2913
aS'hey cutie'
p2914
ag22
aS'yes how do you get it and how much'
p2915
aS'this is one of your fans plz text back'
p2916
aS'i will check it out thank you so much'
p2917
aS'yes'
p2918
aS'good'
p2919
aS'hey'
p2920
aS'i might be interested'
p2921
aS'how old r you'
p2922
aS'please'
p2923
aS'hi'
p2924
aS'oh and i m ava do you remember me at all it s fine if you don t avabradshaw'
p2925
aS'how can we get it'
p2926
aS'morgan'
p2927
aS'can u please bff me'
p2928
aS'is this morgan katherine'
p2929
aS'yes'
p2930
aS'yeah how old are u'
p2931
aS'that s good l ll talk to you later byeeee'
p2932
aS'yes'
p2933
aS'hii'
p2934
aS'hi morgan i love you so much my musical ly is ryhort i m not asking you to follow me i just wanted u to know who i was by the way your teeth are perfect and so are u are you a model'
p2935
aS'nah i can t spend that much money sorry'
p2936
aS'good'
p2937
aS'who s this'
p2938
aS'i m confused'
p2939
aS'it s summer tho unless school has already started for you'
p2940
aS'can u make me ur bff'
p2941
aS'okay thanks'
p2942
aS'um kkk'
p2943
aS'but thanks for the offer'
p2944
aS'yeah'
p2945
aS'yes how much is cost'
p2946
aS'send a live photo just to make sure'
p2947
aS'it was good can u do me a favor'
p2948
aS'yea thanks so much for texting me back that means alot'
p2949
aS'yasss'
p2950
aS'pretty good'
p2951
aS'yes'
p2952
aS'what state do you live in'
p2953
aS'yeah that s so awesome'
p2954
aS'awwe u should look at a bearded dragon i have one'
p2955
aS'my day was awesome and how was yours that rat is sooooo cute'
p2956
aS'yes'
p2957
aS'yah omg i cant believe this'
p2958
aS'yeah but it depends how much'
p2959
aS'okay is it real'
p2960
aS'i m sorry but unfortunately i am unable to get it right now my mom said on my birthday'
p2961
aS'good you know the solo selfie app'
p2962
aS'why that number'
p2963
aS'yes'
p2964
aS'of course'
p2965
aS'bff me and follow me on musically plz my use name is aryanna'
p2966
aS'yass'
p2967
aS'awww cute good'
p2968
aS'okay thank you'
p2969
aS'good how was yours'
p2970
aS'i love you so much'
p2971
aS'hi loren you re so beautiful'
p2972
aS'can u send a picture of yourself to me cause my friends don t believe this is you'
p2973
aS'cute'
p2974
aS'good'
p2975
aS'aw your my fav'
p2976
aS'yes'
p2977
aS'send vid saying hey julia'
p2978
aS'sup'
p2979
aS'yay this is super cool have you texted a lot of fans'
p2980
aS'omg i love you so much'
p2981
aS'your my most favorite muser ever'
p2982
aS'yes i m interested how much is it'
p2983
ag22
aS'cool i was wandering do u live in kentucky'
p2984
aS'talk later'
p2985
aS'ok thanks'
p2986
aS'yes in interested'
p2987
aS'yes'
p2988
aS'u are soo pretty'
p2989
aS'show me a recent picture of right now'
p2990
aS'yea sounds cool'
p2991
aS'yes'
p2992
aS'ok'
p2993
aS'yes'
p2994
aS'good i made the cheer team'
p2995
aS'yes'
p2996
aS'thanks'
p2997
aS'yes but i don t think my would allow me too'
p2998
aS'borin boyfriends grounded what kind of animals'
p2999
aS'sure'
p3000
aS'yips'
p3001
aS'yes'
p3002
aS'i don t wear makeup so i m not interested sorry'
p3003
aS'yes of course'
p3004
aS'hello'
p3005
aS'good'
p3006
aS'yes'
p3007
aS'good'
p3008
aS'did u wanna text ur fans'
p3009
aS'yes please i would love a makeup kit but i don t have the money to buy one'
p3010
aS'hey i m olivia i m a big fan of u'
p3011
aS'yes in interestedddd'
p3012
aS'yeah'
p3013
aS'hi morgan hope this is the right plz txt back my name is bren i live in louisiana i am lov ur musical lys ur sister is awsome so r u anyway thx o and plz follow me on musical ly i am dd a'
p3014
aS'my day is good you look cute today'
p3015
aS'yeah totally cool'
p3016
aS'hi my name is chelsea i m a big fan of urs'
p3017
aS'hi'
p3018
aS'how much is your kit'
p3019
aS'yeah'
p3020
aS'you are very welcome'
p3021
ag22
aS'yes your so amazing and talented'
p3022
aS'no'
p3023
aS'yummy who are you with'
p3024
aS'th u r th ut t t'
p3025
aS'yes'
p3026
aS'ok thanks'
p3027
aS'yesss'
p3028
aS'that s good'
p3029
aS'good'
p3030
aS'i understand if u don t want to talk to me'
p3031
aS'thank u love u to your so nice'
p3032
aS'of course'
p3033
aS'ok'
p3034
aS'yes'
p3035
aS'omg i love you so much'
p3036
aS'it was good thanks for asking i m on a road trip right now'
p3037
aS'yeah sounds cool'
p3038
aS'love that pic'
p3039
aS'it was preety good and thats cool'
p3040
aS'hey'
p3041
aS'yea'
p3042
aS'hello'
p3043
aS'um is this really u'
p3044
aS'hola'
p3045
aS'i love it'
p3046
aS'also if you are talking to me and not copping and pasting to everyone send me back a penguin emoji'
p3047
aS'can you add me on musicly my name is rayne smalls'
p3048
aS'yes'
p3049
aS'hey is this morgan'
p3050
aS'thankss'
p3051
ag22
aS'yes i would'
p3052
aS'yes'
p3053
aS'thank you so much for replying'
p3054
aS'hey love you on musically'
p3055
aS'good'
p3056
aS'yes'
p3057
aS'maybe it depends on the cost'
p3058
aS'bff me plz'
p3059
aS'who is this'
p3060
aS'i would love the kit i would totally buy it'
p3061
aS'yes'
p3062
aS'good but that is so adorable btw will u bff me on musically please'
p3063
aS'yeah'
p3064
aS'this is so cool omg thanks so much for answering'
p3065
aS'good thank u'
p3066
aS'cool'
p3067
aS'is it free'
p3068
aS'is there still other fans texting you'
p3069
aS'yes'
p3070
aS'really'
p3071
aS'yay'
p3072
aS'wyd'
p3073
aS'please answer'
p3074
aS'i think your so pretty and you my role model all the way'
p3075
aS'can i have ur real number so i can ft u its my bday'
p3076
aS'notifs on'
p3077
aS'can we be bffs on musically so we can duet together my musically is bruhhitsgraci'
p3078
aS'is this morgan i heard you weren t hacked but i m just making sure lol'
p3079
aS'how do i get one'
p3080
aS'day not dad opps'
p3081
aS'please follow me faboyd'
p3082
aS'ya'
p3083
aS'hey i m a big fan and your really pretty can you follow me on musical ly courtney'
p3084
aS'omg morgan i m such a huge fan i m so happy u let fans have your u make me so happy ily so much and your so pretty'
p3085
aS'it was good i stayed home all day'
p3086
aS'hello'
p3087
aS'can you please'
p3088
aS'heyy'
p3089
aS'good how was yours'
p3090
aS'ok'
p3091
aS'morgan ilysm you re gorgeous and such an inspiration for so many girls'
p3092
aS'yes'
p3093
aS'thank you and i m so proud of youuuu'
p3094
aS'thank you'
p3095
aS'i hope you answer'
p3096
aS'sure'
p3097
aS'good'
p3098
aS'cute'
p3099
aS'aww my day was great'
p3100
aS'what are you doing now'
p3101
aS'ummmm yeah'
p3102
aS'hi'
p3103
aS'thank you'
p3104
aS'it is on point'
p3105
aS'ok'
p3106
aS'hi is this the muser'
p3107
aS'ok'
p3108
aS'omg of course'
p3109
aS'hi'
p3110
aS'yes i am'
p3111
aS'you are so pretty'
p3112
aS'yes'
p3113
aS'stop'
p3114
aS'ur my fav'
p3115
aS'hi this is one of ur fans off musicly'
p3116
aS'ok for how much'
p3117
aS'good and it s so cute'
p3118
aS'yes'
p3119
aS'ok thank you'
p3120
aS'yes please love you'
p3121
aS'amazing'
p3122
aS'hi morgan i just wanted to say that you re such an amazing and beautiful person i love you so much'
p3123
aS'yes i am very interesting i love ur makeup'
p3124
aS'its ok if u dont no one likes me and i get bullied'
p3125
aS'yes'
p3126
aS'yes'
p3127
aS'how r u'
p3128
aS'yes'
p3129
aS'yes'
p3130
aS'how are you'
p3131
aS'ok thank you'
p3132
aS'hiiiiii'
p3133
aS'ya'
p3134
aS'omg hi i love your musicallys'
p3135
aS'and makeup it self'
p3136
aS'heyy btw your really pretty hopefully you can respond'
p3137
aS'what s up'
p3138
aS'good'
p3139
aS'yes very but i have a real quick question'
p3140
aS'hi oml my names makayla and ur so pretty and really good at ur musica lys'
p3141
aS'yes sounds awesome im very interested'
p3142
aS'hey i m following u on musical ly i just texted your other number and it said to text this number'
p3143
aS'can u answer my calls'
p3144
aS'it s my birthday and yessssssss'
p3145
aS'hey'
p3146
aS'yes i am very i trested how much does it cost'
p3147
aS'i saw'
p3148
aS'sorry morgan my friend said ur hacked but i know ur not sorry i hope u forgive me because i love u'
p3149
aS'hi this is anna from arkansas just hangin around'
p3150
aS'ur so gorgeous'
p3151
aS'yes i am'
p3152
aS'well i am a guy so i will not be interested in the makeup kit'
p3153
aS'how are you doing'
p3154
aS'my day was good'
p3155
aS'no stop messaging me'
p3156
aS'hi i am a huge fan and i wanna to know if this is really u morgankatherine'
p3157
aS'no'
p3158
aS'where can i get it'
p3159
aS'yes what type of makeup'
p3160
aS'good thanks'
p3161
aS'hi do u have any updates'
p3162
aS'yes is it free'
p3163
aS'yes of course i m interested and your makeup looks amazing'
p3164
aS'can you give me a shout out plz and are you going to do a meat and greet anytime soon'
p3165
ag22
aS'how'
p3166
aS'no'
p3167
aS'too expensive'
p3168
aS'hey is this morgan'
p3169
aS'omg no way'
p3170
aS'omg is this really morgan katharine'
p3171
ag22
aS'aww that most of been fun and good how been your day'
p3172
aS'sup'
p3173
aS'your seriously so pretty'
p3174
aS'hey'
p3175
aS'is this really you'
p3176
aS'yes'
p3177
aS'yes'
p3178
aS'good'
p3179
aS'yeah'
p3180
aS'good'
p3181
aS'omg hey i m such a big fan i love you plz reply back'
p3182
aS'hiiiii'
p3183
aS'omg heeey im a really big fan and i understand u probably have tons of messages rn but i just wanted to say that ilysm and your amazing at musically and sooo pretty and lol since ur famous im just gonna wait and i have im so glad u have a crown u definitely deserve it and ur eyes are soo pretty and i want to apologize for the long text and sorry if i bothered u but lysm and ur a great muser ur basically perfect but yea sry for the long paragraph'
p3184
aS'hi is this morgan'
p3185
aS'yep sounds cool'
p3186
aS'no still to'
p3187
aS'can you bff me oliviamorn i m friends with jackson kreicoch and it would be so cool if i could tell him about this'
p3188
aS'omg is this really you'
p3189
aS'i really hope your account didn t get hacked i m a huge fan have been for a while i don t know if this is your real number or not but if it is ily'
p3190
aS'yes it does'
p3191
aS'plz answer'
p3192
aS'kk'
p3193
aS'can you please texting me i know this isn t morgan katherine'
p3194
aS'hey omg i can t beleive this is you'
p3195
aS'hiii'
p3196
aS'oops sorry i forgot i saw it it was great'
p3197
aS'yea'
p3198
aS'good ig'
p3199
aS'i m sorry to disappoint you morgan but i am not interested i don t like wearing makeup i m sorry'
p3200
aS'is this really u'
p3201
aS'mine was good how was yours'
p3202
aS'omg i can t believe it s really u i m so happy u gave ur number out i ve just started following u and ur so amazing'
p3203
aS'yah it was so good'
p3204
aS'yes'
p3205
a.