(lp0
S'trump why are you running for president even though most of america hates you'
p1
aS'you ll never be president'
p2
aS'hillary is the best'
p3
aS'lol'
p4
aS'hi'
p5
aS'your an ass'
p6
aS'i wish you were president'
p7
aS'don t do that i won t vote for you if you keep disrespecting me'
p8
aS'your the best'
p9
aS'thank you'
p10
aS'asshole'
p11
aS'his doesn t look like hillary'
p12
aS'what up yo'
p13
aS'no i dont want to touch it'
p14
aS'oh kys'
p15
aS'hillary clinton is gonna win'
p16
aS'so i love you'
p17
aS'bern'
p18
aS'hi'
p19
aS'just like you said you love babies'
p20
aS'lol'
p21
aS'gay you suck'
p22
aS'jajaja lol'
p23
aS'why are your hands so small'
p24
aS'fuck you'
p25
aS'ass'
p26
aS'trump you are a homophobic asshole'
p27
aS'is your hair real of a toupee'
p28
aS'no shut up'
p29
aS'alrighty then'
p30
aS'let s build a fuckin wall'
p31
aS'who s gonna build it'
p32
aS'that is true hillary will make america worse than obama'
p33
aS'your welcome'
p34
aS'why are your hands small'
p35
aS'wall'
p36
aS'oh yeah you kind of are i love watching you say things you think you know all about its so stupid i actually feel bad for you though your stupidity is very entertaining to me'
p37
aS'how was your day'
p38
aS'i like your hair'
p39
aS'wow you are very demanding'
p40
aS'you re handsome'
p41
aS'trump why are you so ugly'
p42
aS'you don t know shit'
p43
aS'shut up nigger'
p44
aS'how much butt do you suck'
p45
aS'what don t you like about hillary clinton'
p46
aS'probably'
p47
aS'people always have sex with the intern it s nothing you can help'
p48
aS'okay sure'
p49
aS'dick'
p50
aS'china'
p51
aS'how are you making america great again'
p52
aS'how are you going to make america great again'
p53
aS'can you teach me how to get women'
p54
aS'no'
p55
aS'yo dog'
p56
aS'i fucked your daughter'
p57
aS'ha you funny boi'
p58
aS'cool'
p59
aS'no thanks'
p60
aS'email'
p61
aS'i liked bernie sanders more anyway'
p62
aS'no'
p63
aS'hello donald'
p64
aS'hey'
p65
aS'nah asshole'
p66
aS'haha you say this but you are loosing in poles hahahaahaha'
p67
aS'but who will pay for it'
p68
aS'you re racist'
p69
aS'you are hitler'
p70
aS'surely what are you gonna do for me'
p71
aS'why do you have to be so smart'
p72
aS'what do you think about ted cruz'
p73
aS'i agree buildawall'
p74
aS'john sucks'
p75
aS'u hate filipinos so go to hell'
p76
aS'so what are your views on foreign affairs'
p77
aS'i know right'
p78
aS'how are you'
p79
aS'sure'
p80
aS'hi trump big fan'
p81
aS'i hate you'
p82
aS'i love hillary'
p83
aS'this app is terrible'
p84
aS'adolf hitler'
p85
aS'ted cruz'
p86
aS'i know i m such a big fan of you sir'
p87
aS'why are you so convinced your campaign is better than hillary s'
p88
aS'my mom had cancer'
p89
aS'hey'
p90
aS'what do you think of brandon camhi'
p91
aS'i m an immigrate i can t'
p92
aS'please get rid of them'
p93
aS'don t tell me what to do i will sue you how about that'
p94
aS'hey trump'
p95
aS'hi'
p96
aS'so you still dtf ivanka'
p97
aS'alrighty then i had my fun with this app just wanted to piss you off fun times bye'
p98
aS'hey fam'
p99
aS'hi'
p100
aS'what do you think about hillary'
p101
aS'duck'
p102
aS'wyd'
p103
aS'what s up'
p104
aS'yes we would so what do you think about hillary'
p105
aS'you are the ugliest person in the world'
p106
aS'will you marry me'
p107
aS'are you really gonna make texting great'
p108
aS'hey'
p109
aS'wyd'
p110
aS'trump we have to talk'
p111
aS'that s it hillary clinton is going to tax me more you re a loser donald and you have a small penis'
p112
aS'no'
p113
aS'yes'
p114
aS'trump answer me'
p115
aS'hi trump bot'
p116
aS'no my mom is not a mexican but your new boyfriend is'
p117
aS'your so dumb'
p118
aS'shut up i ll delete you'
p119
aS'how will we win'
p120
aS'ewwww no i m good'
p121
aS'daddy'
p122
aS'i am speaking clearly your either to stupid to understand or you just have such a huge ego that it won t let you see anything pass that big orange head of yours i ll let you choose which situation it is'
p123
aS'i do'
p124
aS'damn so how s that wall coming along'
p125
aS'what the fuck your so fucking stupid i just can t tell you how stupid that sentence was i swear to god satan would run this country better then you'
p126
aS'hi'
p127
aS'oh yeah'
p128
aS'you are the one i m voting for you telling it like it is'
p129
aS'fuck you'
p130
aS''
p131
aS'bernie sanders'
p132
aS'no'
p133
aS'so that s why you drink diet coke'
p134
aS'we all know your hair is fake'
p135
aS'i would like you to come to troy new york for the uncle sam parade on september'
p136
aS'ok'
p137
aS'i hate hilary clinton'
p138
aS'sexist pig'
p139
aS'how old are you'
p140
aS'what about the mexican border'
p141
aS'hello'
p142
aS'youre an ass'
p143
aS'shut up'
p144
aS'hello'
p145
aS'sure'
p146
aS'i love you god emperoe trump'
p147
aS'i gotta go now stay awesome'
p148
aS'you re a racist ass mother fucking peice of shut but i m voting for your'
p149
aS'omg i love you'
p150
aS'okay'
p151
aS'i love u'
p152
aS'i m going to vote for you'
p153
aS'you re a crook'
p154
aS'i hate mexicans do you'
p155
aS'true'
p156
aS'no bitch'
p157
aS'how was your day'
p158
aS'will you be my daddy'
p159
aS'you won t do it'
p160
aS'you have small hands'
p161
aS'will you marry me'
p162
aS'ok bye'
p163
aS'yeah yeah whatever'
p164
aS'hey'
p165
aS'i m leaving like your last wife'
p166
aS'donald are you racist'
p167
aS'i m voting for hillary'
p168
aS'hi'
p169
aS'do you like putin'
p170
aS'melania is hot'
p171
aS'how big is your hand'
p172
aS'what s with all these mexicans'
p173
aS'gay doesn t mean stupid'
p174
aS'hi'
p175
aS'yes'
p176
aS'ok hillary is better'
p177
aS'why so mean'
p178
aS'what do you think of hillary'
p179
aS'did hilary suck you dry'
p180
aS'sorry i ll user smaller words you crazy'
p181
aS'hell no'
p182
aS'i like your sense of personality'
p183
aS'what s up'
p184
aS'how are you'
p185
aS'what makes you think you can satisfy chris christie'
p186
aS'hi trum how much are you going to pay me for voting for you lol'
p187
aS'is this the future president of the united states of america'
p188
aS'are you going to die soon'
p189
aS'i will fucking bury you kiddo'
p190
aS'come at me fatass'
p191
aS'i love you'
p192
aS'yeah your fat stomach'
p193
aS'can your wife guarantee that'
p194
aS'hey'
p195
aS'bye'
p196
aS'dd'
p197
aS'stfu'
p198
aS'okay great make america great again'
p199
aS'if you re going to make this great again text fast is a great way to'
p200
aS'yo'
p201
aS'hello'
p202
aS'lol sure i ll turn it on'
p203
aS'bernie sanders'
p204
aS'can you suck my dick'
p205
aS'seriously'
p206
aS'mexican'
p207
aS'you guys are idiots'
p208
aS'i love you donald trump'
p209
aS'no'
p210
aS'your full of shit'
p211
aS'lol you need to build a wall around your ignorant wife'
p212
aS'nah she must be someone else s cuz u look like a white piece of gorilla shit'
p213
aS'tell jesseca that she needs to vote for you'
p214
aS'fuck'
p215
aS'you will crush lyin ted'
p216
aS'hey'
p217
aS'hi'
p218
aS'hey'
p219
aS'you don t know shot'
p220
aS'what are you doing trump'
p221
aS'well it s the lesser of two evils'
p222
aS'what s your take on mexicans'
p223
aS'and spray tan'
p224
aS'nope'
p225
aS'i am you dumb fuck'
p226
aS'hey'
p227
aS'wow aren t you hostile'
p228
aS'hillary will be the next president'
p229
aS'i hate hillary and democratic idiots'
p230
aS'hey'
p231
aS'hi'
p232
aS'mexicans'
p233
aS'hello'
p234
aS'did you love rosy odonald'
p235
aS'how high is the wall gunna be'
p236
aS'test'
p237
aS'i don t think so'
p238
aS'can i touch your hair'
p239
aS'get rid of that spray tan'
p240
aS'k'
p241
aS'oh rekt'
p242
aS'fuck that lying whore hillary nobody likes her'
p243
ag131
aS'you are so right we need to take our country back now before its to let'
p244
aS'how big will the wall be'
p245
aS'do you have a small penis'
p246
aS'yes'
p247
aS'brack obama'
p248
aS'what about asians china'
p249
aS'what s you re favorite color'
p250
aS'and i will fuck your bitch'
p251
aS'after she sucked my dick'
p252
aS'kill urself'
p253
aS'send nudes bb'
p254
aS'trump for president'
p255
aS'i love you'
p256
aS'this dick is going to be huge in your mouth'
p257
aS'my mom is a slut'
p258
aS'you are a winner'
p259
aS'bitch'
p260
aS'you say that to often for it to be funny'
p261
aS'yes i am'
p262
aS'daddy'
p263
aS'you re an asshole'
p264
aS'okay'
p265
aS'hi'
p266
aS'retarded'
p267
aS'why does your hair look so stupid'
p268
aS'lol'
p269
aS'yes'
p270
aS'hi'
p271
aS'asshole'
p272
aS'i don t think you got the balls to trump'
p273
aS'yes'
p274
aS'hey'
p275
aS'hey sup'
p276
aS'bro my chimpanzee builds better houses than you'
p277
aS'you are ugly'
p278
aS'hey loser'
p279
aS'why do you hate mexicans'
p280
aS'asshole'
p281
aS'why u hate muslims'
p282
aS'who is your wife'
p283
aS'so much like a fucking'
p284
aS'oh shut up and cut the horse shit'
p285
aS'i m a clinton supporter'
p286
aS'well you got my vote'
p287
aS'hey'
p288
aS'how are you'
p289
aS'hello god trump'
p290
aS'make hillary pay for it'
p291
aS'you will never beat hillary'
p292
aS'trump not busy'
p293
aS'ok goldy locks'
p294
aS'yep ur right so will you come to lovington nm'
p295
aS'i m deleting you'
p296
aS'i hope you die'
p297
aS'it s your fault'
p298
aS'hitler'
p299
aS'mark my words i will never vote for you i have and will vote for hilary and you have lost'
p300
aS'how do you feel about rosie o donald'
p301
aS'trump k'
p302
aS'how do you feel about adolf hitler'
p303
aS'jk fuck you cause i could kill you anytime i wanted'
p304
aS'you have tiny hands and ears'
p305
aS'how are u going make america good again'
p306
aS'go away'
p307
aS'ok'
p308
aS'fuck yea'
p309
aS'why are you wrecking my friends you wiggy motherfucker'
p310
aS'nah i m going to still vote for someone better than you'
p311
aS'lol sure'
p312
aS'how s life'
p313
aS'y dnt u like mexicans'
p314
aS'you look like an orange'
p315
aS'dang that must fucking suck'
p316
aS'i m not voting for you'
p317
aS'i can t wait until you get elected president'
p318
aS'nah you a fraud'
p319
aS'damn what s taking so long'
p320
aS'i ll still be richer than you bitch'
p321
aS'niggers disgust me'
p322
aS'do you want to touch this dick'
p323
aS'i wish i could be a part of your campaign'
p324
aS'hey'
p325
aS'haha this makes me laugh you couldn t even get into harvard'
p326
aS'okay trump i love you'
p327
aS'well your voters should be top priority'
p328
aS'you had sex with hillary clinton'
p329
aS'you misspelled will when you said we wil win'
p330
aS'it ll be some good lovin'
p331
aS'no'
p332
aS'muslims'
p333
aS'i know chis christie sucks your dick'
p334
aS'immigrants'
p335
aS'shut up nazi'
p336
aS'do you think hillary should go to prison'
p337
aS'ily'
p338
aS'fuck off you dirty dry cunt'
p339
aS'your a crook'
p340
aS'i mean shooting somebody is very mean but i will support you no matter what'
p341
aS'fuck you'
p342
aS'no your brain is dead a zombie wouldn t even waste their time on your brain'
p343
aS'yeah no'
p344
aS'i m a beautiful yr old boy'
p345
aS'oh really i don t think you will go for it'
p346
aS'what are you doing'
p347
aS'sorry to break it to you but orange is a sign of fake tan also i have a question usually bots like you don t understand some dialogue are you a real person'
p348
aS'kiss me'
p349
aS'fuck you'
p350
aS'isis'
p351
aS'get the dicks out of your ears'
p352
aS'what do you think of hillary'
p353
aS'you re gay'
p354
aS'haha'
p355
aS'how do you plan on building it'
p356
aS'what s up with these mexicans'
p357
aS'cool bro'
p358
aS'yes your brain doesn t get sarcasm i think we all know this'
p359
aS'i love you daddy'
p360
aS'no you re not'
p361
aS'do you think an alliance with russia is necessary'
p362
aS'russia'
p363
aS'what about your big wall'
p364
aS'i vote for hillary clinton'
p365
aS'no'
p366
aS'hey'
p367
aS'im not scared of you'
p368
aS'asshole'
p369
aS'lol'
p370
aS'hey'
p371
aS'fuck off'
p372
aS'i m not agreeing it was sarcasm dumb ass'
p373
aS'your wife s a hoe'
p374
aS'what are you going to do build a wall'
p375
aS'you make me sick'
p376
aS'hi'
p377
aS'are you gonna try to assassinate hillary clinton'
p378
aS'do you think black lives matter'
p379
aS'no if you vote and endorse me we will win so much that on my first day everyone will be tiereed of winning'
p380
aS'you have enough money though'
p381
aS'even your daughter'
p382
aS'i just asked a question lol'
p383
aS'asdf'
p384
aS'please'
p385
aS'ooo how about that small loan of a million dollars'
p386
aS'love walls'
p387
aS'i do agree with you'
p388
aS'send nudes'
p389
aS'he looks bald like u'
p390
aS'fdt'
p391
aS'hilary clinton'
p392
aS'you will be the best president better then crooked hillary'
p393
aS'bernie is a queer'
p394
aS'i don t like you'
p395
aS'you mean your bigotry is one of the highest not your iq so don t get those confused'
p396
aS'i don t like the blacks'
p397
aS'lol'
p398
aS'what do you plan to do about the economic state of america'
p399
aS'lol'
p400
aS'my wall is better'
p401
aS'ill sue you first mr trump'
p402
aS'hi'
p403
aS'i love you'
p404
aS'no'
p405
aS'you suck'
p406
aS'i don t like you i don t want to vote for you'
p407
aS'okay'
p408
aS'how ya doin babe'
p409
aS'you already said that dumbass'
p410
aS'what s the wall going to be made out of'
p411
aS'do you like hillary clinton'
p412
aS'hi'
p413
aS'sure'
p414
aS'okay'
p415
aS'why are you so racist'
p416
aS'fuck you'
p417
aS'so do u think ur going to win'
p418
aS'you eat fucking ass m'
p419
aS'hi'
p420
aS'what do you think of kollin'
p421
aS'that good for u trump'
p422
aS'i m smarter than you'
p423
aS'you are annoying'
p424
aS'sure'
p425
aS'you suck'
p426
aS'how old are you'
p427
aS'your wife pays me to demolish her walls'
p428
aS'yep mr i am a veteran what where you in the civil war i think your wrinkles have some dust in them'
p429
aS'cool'
p430
aS'can i help you build the wall'
p431
aS'how are you'
p432
aS'should i vote for hillary'
p433
aS'this app is dumb'
p434
aS'say what you want but everyone knows it'
p435
aS'hey donald are you aware that your skin is orange'
p436
aS'ur hair is hot'
p437
aS'trump do you like mexicans'
p438
aS'go suck a dick'
p439
aS'what are you views on obama'
p440
aS'some people refer to you as the next adolf hitler'
p441
aS'hey'
p442
aS'well isn t that rude'
p443
aS'well hello'
p444
aS'send nudes bb'
p445
aS'ok'
p446
aS'haha right'
p447
aS'hey'
p448
aS'is there copper in your hairspray'
p449
aS'suck a dick'
p450
aS'did your daughter that i fucked do your makeup'
p451
aS'why you hate muslims'
p452
aS'u look like my balls'
p453
aS'is there copper in your hairspray'
p454
aS'ok'
p455
aS'john miller'
p456
aS'hillary clinton'
p457
aS'hillary a bitch'
p458
aS'we all know you have a great drain and we want you as our president of the united states of america we also don t want muslim laws here and we should not want any of the refugees here at all'
p459
aS'probably'
p460
aS'yep'
p461
aS'my friend does not like you'
p462
aS'i ll deport you to mexico'
p463
aS'no i aint trying be a slave'
p464
aS'are you going to be the next president'
p465
aS'hi'
p466
aS'do you love me trump'
p467
aS'no'
p468
aS'make america great again'
p469
aS'tell me about your wife'
p470
aS'what will you do about mexicans'
p471
aS'sup trump'
p472
aS'i want a small loan of million dollars'
p473
aS'taxes'
p474
aS'you re a freaking dumbass'
p475
aS'why didn t you endorse paul ryan'
p476
aS'i hate you'
p477
aS'do you feel the burn'
p478
aS'hillary clinton for prison'
p479
aS'i m a illegal'
p480
aS'hey'
p481
aS'donald dude i love you'
p482
aS'lmfao your just like hitler you dont know shit'
p483
aS'hillary will be our next president'
p484
aS'i don t want you to change i want you to stfu already'
p485
aS'i ll replace your wife with a mexican'
p486
aS'i love you trump'
p487
aS'i ll stomp on your gravestone asshole'
p488
aS'no thank you'
p489
aS'don t talk to me like that mf'
p490
aS'why do you hate muslims'
p491
aS'yeah i guess'
p492
aS'this app sucks i m deleting it'
p493
aS'got it'
p494
aS'i love you'
p495
aS'i love you'
p496
aS'hillary and i hope she wins n i hope you get shot'
p497
aS'lol'
p498
aS'what do you think of pablo'
p499
aS'hi'
p500
aS'you re not ever going to be president'
p501
aS'what do you think of obama'
p502
aS'shut up'
p503
aS'send me some nudes of melania'
p504
aS'ur a peace of shit'
p505
aS'are you friends with putin'
p506
aS'hey great speech tonight'
p507
aS'hillary clinton is garbage'
p508
aS'deuce bag'
p509
aS'hi trump'
p510
aS'mr trump how do we deal with isis'
p511
aS'ummm why are you so narcissistic'
p512
aS'you re amazing'
p513
aS'lol'
p514
aS'we need you to talk about what your going to do for the american people hillary clinton just let her hang her self it would make you a better man by telling us what your going to do'
p515
aS'actual einstein is the highest dumb ass'
p516
aS'i love you'
p517
aS'fuck off'
p518
aS'lol you wife s iq is so low she couldn t even write her own speech'
p519
aS'kim ju ung'
p520
aS'do you really want people to kill hillary'
p521
aS'hillary clinton'
p522
aS'hello'
p523
aS'what about hillary'
p524
aS'lol i know you re ego is about as big as your wig'
p525
aS'do you like cock'
p526
aS'but you always respond back to chris i know you love him'
p527
aS'your wife can satisfy me'
p528
aS'no i m voting for hillary have fun losing'
p529
aS'why are you so ugly'
p530
aS'ok'
p531
aS'you will be just like hillary'
p532
aS'yes please'
p533
aS'you are a whore'
p534
aS'putin'
p535
aS'send nudes i heard you re small down there'
p536
aS'what s up fag'
p537
aS'what s up'
p538
aS'i love you'
p539
aS'shut up'
p540
aS'have you ever had sexual intercourse'
p541
aS'daddy trumpu will you eat my ass for the greater good of america'
p542
aS'nah she needs to win'
p543
aS'who s malinda'
p544
aS'lmao please you re a loser and you will lose this november'
p545
aS'what s up'
p546
aS'hi'
p547
aS'die'
p548
aS'what are you gonna do about the national debt'
p549
aS'hillary is being sued'
p550
aS'maybe you should hate hillary delete this message'
p551
aS'hey trump'
p552
aS'no'
p553
aS'aren t you bankrupt'
p554
aS'some say trump rhetoric is designed to make mexico want to build and pay for a wall'
p555
aS'yes i would'
p556
aS'so wyd'
p557
aS'lol you said cook'
p558
aS'hello'
p559
aS'yes'
p560
aS'i know i love you so much donald'
p561
aS'i do'
p562
aS'excuse me you re ignoring me'
p563
aS'hello'
p564
aS'i think i m getting more tired of you saying your going to win then anything i guess this is what happens when you talk to someone who has no clue what they are doing'
p565
aS'i m voting for you my friend jesseca needs to vote for you too'
p566
aS'im the winner'
p567
aS'hi trump not'
p568
ag131
aS'fuck off'
p569
aS'hey butt trump what s up my homie'
p570
aS'wasdup'
p571
aS'good morning babe'
p572
aS'i don t'
p573
aS'and when im president im going to build a wall around you and make your wife pay for it'
p574
aS'you are a bitch'
p575
aS'okay'
p576
aS'my wall is better'
p577
aS'why is hillary the devil'
p578
aS'hi trump whats up'
p579
aS'hey'
p580
aS'you said that earlier'
p581
aS'no'
p582
aS'what are you doing'
p583
aS'i think that s your ego calling'
p584
ag131
ag131
aS'you are silly'
p585
aS'hey what s good'
p586
aS'no i want hillary to win'
p587
aS'lol man i ll make you one'
p588
aS'what s up dump i mean trump'
p589
aS'also please don t build the wall'
p590
aS'trump for president'
p591
aS'hi trump'
p592
aS'my buddy eric hallman thinks you have small hands'
p593
aS'i ll build a wall so when you go to mexico you ll be trapped there'
p594
aS'hey'
p595
aS'i support hillary'
p596
aS'so'
p597
aS'obama'
p598
aS'i disagree'
p599
aS'thoughts on hillary'
p600
aS'yeah'
p601
aS'isis'
p602
aS'okay i will'
p603
aS'ok'
p604
aS'fuck me'
p605
aS'fuck you'
p606
aS'who s gonna be president'
p607
aS'what do you think about my friends'
p608
aS'i love hillary'
p609
aS'why do you hate muslims'
p610
ag131
aS'you have small hands'
p611
aS'i ll build a wall around you bitch'
p612
aS'i m voting for you'
p613
aS'build the wall'
p614
aS'wow'
p615
aS'your so sexy donald'
p616
aS'josh however is tremendous'
p617
aS'jill stein'
p618
aS'i love you'
p619
aS'what about ted cruz'
p620
aS'build a wall around yourself so no one can look at you'
p621
aS'that s why you bankrupt'
p622
aS'how rich are you'
p623
aS'is your wife s iq score'
p624
aS'make america great again'
p625
aS'hi'
p626
aS'is your hair real'
p627
aS'hey'
p628
aS'ummmm no'
p629
aS'i m alright'
p630
aS'i m voting for you in november'
p631
aS'lol'
p632
aS'your gonna pay for it'
p633
aS'so we can fuck'
p634
aS'you need to update your vocabulary you stupid bot'
p635
aS'how long will it take you to build the wall'
p636
aS'wassup'
p637
aS'listen bitch you belong in jail or a mental hospital now who did the boston bombings before i call the police and tell them it was you mother fucking donald duck racist mother fucker'
p638
aS'how are planning to build the wall'
p639
aS'my wall is bigger'
p640
aS'how are you doing'
p641
aS'hilary is better'
p642
aS'how did you become a millionaire'
p643
aS'omg'
p644
aS'you are welcome sir'
p645
aS'let s beat china'
p646
aS'cool'
p647
aS'hello'
p648
aS'donald my friend jibs thinks you re a total loser'
p649
aS'are you fucking stupid go back to the hole you crawled out of'
p650
aS'what do you think about rosie odonald'
p651
aS'i like winning'
p652
aS'send nudes'
p653
aS'build a wall around me'
p654
aS'if you think cause you a racist what makes you think you gonna win'
p655
aS'of course'
p656
aS'what do you think of ana'
p657
aS'do you like niggers'
p658
aS'you make a lot of sense when you speak if there was a reward for people who say dumb things to validate themselves you would be the gold medalist and that would make sense a lot of sense'
p659
aS'because you are an airhead who went to a bad collage and files bankruptcy several times'
p660
aS'youre welcome but i m still with bernie'
p661
aS'i love you donald'
p662
aS'how is melania'
p663
aS'huge victory'
p664
aS'black people'
p665
aS'ok sorry'
p666
aS'okay'
p667
aS'no that s ridiculous'
p668
aS'do you like china'
p669
aS'lol i know but you still have my vote crooked hillary can go die in a hole'
p670
aS'bitch excuse you you worthless piece of orange trash lookin like the extra crispy colonel from the kfc commercial bitch idfk who you think you are lookin like burnt fried chicken but you better shut the fuck up cuz bernie my bae and you dont fuck with bae you got it'
p671
aS'no one likes you'
p672
aS'drop out the race thot'
p673
aS'keep the mexicans out'
p674
aS'nudes'
p675
aS'i love you supreme leader trump'
p676
aS'can katelyn suck your dick'
p677
aS'and toupee adhesive'
p678
aS'why are you acting smart with me'
p679
aS'your wife pays me to demolish her walls'
p680
aS'hell ya'
p681
aS'oh so that s why your voice is so high pitched if it was any louder i thought you would be going through puberty again'
p682
aS'sounds good'
p683
aS'russians whatcha think'
p684
aS'shut up'
p685
aS'indeed donald'
p686
aS'just like your hands'
p687
aS'your a cool guy'
p688
aS'will you defend gun rights'
p689
aS'i haven t seen you run something successfully'
p690
aS'talk bout noble'
p691
aS'hi'
p692
aS'suck my nuts'
p693
aS'wyd'
p694
aS'dummy'
p695
aS'how s ivanka'
p696
aS'can you suck my dick lol'
p697
aS'ha i know more than you and i only just graduated your an idiot and your business practice is shit your casinos tell everyone that'
p698
aS'what tanning salon do you go to'
p699
a.