(lp0
S'please reply'
p1
aS'hi'
p2
aS'bff me plz'
p3
aS'hi again'
p4
aS'ok btw i think u r awesome and u r funny u have swag ps u slay'
p5
aS'thanks for texting back your musicallys are so funny'
p6
aS'im a really big fan'
p7
aS'the amazing work man love you man'
p8
aS'my name is francesca but you can call me frankee'
p9
aS'i was wondering if u could follow me on musically'
p10
aS'what s ur favorite sport'
p11
aS'oh cool can u bff me on musically'
p12
aS''
p13
aS'ok'
p14
aS'hi kyle you bff me not to long ago im penelopesart you are the funniest person i ve seen every time is like a missing laugh until i find it watching your videos your hilarious man'
p15
aS'i love your musicalys they are really funny'
p16
aS'ok'
p17
aS'cool'
p18
aS'omgoodness is it really you'
p19
aS'ok i love your musicallys'
p20
aS'hi'
p21
aS'btw ily'
p22
aS'hey kyle i am a huge fan of yours you are awesome and make hilarious videos whenever i watch your videos they always make me laugh keep being awesome thanks for following me on instagram'
p23
aS'hey kyle'
p24
aS'hey man love you musicales keep doing what your doing'
p25
aS'hello does this work'
p26
aS'can you follow me on musically i will spam u'
p27
aS'hi i love u sooo much i love your musicallys and you are hilarious and u have great humor my name is heidi and musically username is heidi'
p28
ag13
aS'hey i love your musicallys they are so funny could u bff me duhitzange that would make my day'
p29
aS'this is the most amazing day ever'
p30
aS'hey can you do something for me'
p31
aS'k'
p32
ag13
aS'can you call me'
p33
aS'omg is this really you hey kyle what s up just wanted to say hi and you are my fav muser out there i watch ur music lys all the time they are so good you probably won t text back but if you do that would mean sooooooo much to me'
p34
aS'i m a girl'
p35
aS'sorry to interrupt but can you bff me on musicl ly'
p36
aS'can u follow or na'
p37
aS'hey i love what u do soooo much i follow u and have your notifications on on musical ly i really hope u reaspond to this that would be a dream come true to me this is what my face would look like if u respond to me i love u sooooo much and have a nice day'
p38
aS'no problem can you follow me on musically and can we start a streak on snap chat'
p39
aS'omg thankyou ilysm'
p40
ag13
aS'cool'
p41
aS'ok'
p42
aS'ok'
p43
aS'hey i m a big fan of ur comedies on musical ly and i just wanted to say ur amazing'
p44
aS'and is that really your voice in the obama mcdonald s music ly'
p45
aS'thanks for the insta follow'
p46
aS'think that it s so amazing to give your fans your number it d'
p47
aS'ur awesome'
p48
aS'ok'
p49
aS'happy i was dying when i watched your video about people that play'
p50
aS'if you do not follow me i will unfollow you and i will cry'
p51
aS'omg omg i m such a big fan of yours'
p52
aS'hey omg i m a big fan of yours like seriously you are really funny and lol i can t believe you gave your number out'
p53
aS'yes sure'
p54
aS'sup'
p55
aS'kyle your really cool and i like your musicallys and ily and can we be bffs ily'
p56
aS'ur awesome at musically'
p57
aS'what s up'
p58
aS'hi'
p59
aS'thanks kyle'
p60
aS'kyle hey'
p61
aS'np'
p62
aS'idk if u will respond or nah'
p63
aS'awesome'
p64
aS'can u follow me in musically'
p65
aS'hi i m a fan my names demeri and i want to to say your really funny and i like your comedy so keep doing what you do'
p66
aS'hey'
p67
aS'hey kyle'
p68
aS'd'
p69
aS'your vids are great man'
p70
aS'ok'
p71
aS'omg'
p72
aS'yo wassup'
p73
aS'i love you kyle ur so funny'
p74
aS'can you follow me'
p75
aS'hi'
p76
aS'what s your middle name'
p77
aS'omg thank you so much you are so great'
p78
ag13
aS'can u plz follow me because today s my birthday and my musical ly is javi savage'
p79
aS'my names kori and i have a musical ly it s called kori jo'
p80
aS'can you follow me or give me a bff plz'
p81
aS'hi'
p82
aS'ok thanks for responding automatic message'
p83
ag13
aS'ur musicalys r funny'
p84
aS'hi'
p85
aS'hi i love you so much'
p86
aS'how many people text you know'
p87
aS'hi ur my favorite muser ever ur skits r hilarious and ur such a good rapper'
p88
aS'i already am'
p89
ag13
aS'please follow meeee'
p90
aS'i did but now u should follow me'
p91
aS'i think your really funny and i have tried to like all your musically'
p92
ag13
aS'ok'
p93
aS'love your musical lys i wish i were as funny as you'
p94
aS'ok thankyou'
p95
aS'hi'
p96
aS'hey my name is trey and im from west virginia kyle i would like to say how funny you are most of the time when i come home from school sometimes i might be down or angry i want to thank you so much for being able to make me laugh you are awesome and i hope you never stop making vines thanks'
p97
aS'hi thanks'
p98
aS'hey'
p99
aS'i meant demon'
p100
aS'answer'
p101
aS'hi i seen this number on music ly and i just wanted to say i love ur videos and when i feel sad i watch them and i get happy so thx'
p102
aS'your'
p103
aS'welcome'
p104
aS'cool'
p105
aS'cool i am a big fan'
p106
aS'ok thank you'
p107
aS'hey kyle i just wanted to say how much i love your musicallys they make me laugh so hard and i love watching them over and over again i think it s rly cool how you make whatever videos you want and don t care what ppl think hope you have a good day it s ok if you don t respond i just thought why not give it a try'
p108
aS'btw how do you come up with lyrics and beats so easily'
p109
aS'how are you'
p110
aS'i love you so much'
p111
aS'how old are you'
p112
ag13
aS'how are you'
p113
aS'hey'
p114
aS'hello'
p115
aS'holy crap this is so cool'
p116
aS'and can i please get a bff from you'
p117
aS'hi my name is grace i love your musicallys so much maybe could u follow me or create duet thanks'
p118
aS'i know you won t but my phone is about to die plz respond'
p119
aS'because i got in trouble with my insta'
p120
aS'can u make make one of my vines that i made on my musically channel cool'
p121
aS'okay'
p122
aS'hi'
p123
aS'oops wrong number bye'
p124
aS'i am a fan'
p125
aS'hi im such a huge fan i live your funny musicallys'
p126
aS'sure thing'
p127
aS'ok i m a huge fan u r awesome and super funny'
p128
aS'ok'
p129
aS'you are so funny and cool'
p130
aS'its u'
p131
aS'omg can you like shout me out on musically my username is breelaramore'
p132
aS'kyle we live in the same town and we met twice in barnes and noble omg im such a huge fan ur hilarious'
p133
aS'and i know a lot of people are texting you but can you please text me when you have the chance'
p134
aS'hi kyle i saw your musicly about this number and i just wanted to tell you that you are really funny and always make me smile'
p135
aS'hi'
p136
aS'are u the real one or just a fake person'
p137
aS'no problem'
p138
aS'no problem so when did you start making videos'
p139
aS'ok'
p140
aS'i m good do you have any siblings'
p141
aS'hi kyle'
p142
aS'i m a huge fan tho'
p143
aS'can u bff me on musical ly'
p144
aS'omg hiiiii'
p145
aS'hey'
p146
aS'i m literally ur biggest fan'
p147
aS'yo i love ur vines man they r great keep doing what u do and keep up the good work'
p148
aS'but if it wasn t an automated message omg i am like your biggest fan ever'
p149
aS'what s your favorite color'
p150
aS'hey i would like to know if you can do bffs because some of your'
p151
aS'i followed u on insta and liked ur last video'
p152
aS'please'
p153
aS'do u like sports'
p154
aS'hi'
p155
aS'ok'
p156
aS'hi u are so funny and ily'
p157
aS'ok thanks'
p158
aS'what'
p159
aS'ok'
p160
aS'i can t believe i m talking to u in person lol'
p161
aS'can u plz follow me'
p162
aS'i know that a lot of people might say the same thing but i m saying this from the bottom of my heart'
p163
aS'no probs'
p164
ag13
aS'k love you and your vines'
p165
aS'wassup'
p166
aS'i m nathan'
p167
aS'you'
p168
aS'also i m a big fan of you'
p169
aS'ok'
p170
aS'hey kyle your vines are hilarious and they are so relatable too i hope you have an awesome day and thanks for keeping me laughing on your vines'
p171
aS'are u the real kyleexum'
p172
aS'omgg hiiii please respond whn yhu can'
p173
aS'hey kyle when i typed in the phone number it turns out it s the same area code as my grandparents by any chance are u from connecticut'
p174
aS'aye'
p175
aS'well if it s really u then follow me on musical ly djbryant to prove it'
p176
aS'np i m so happy u answered me'
p177
aS'inspiration'
p178
ag13
aS'probably not'
p179
aS'o my gosh i love your musicllys i love you soooooo much you are sooooooo funny love you plz reply'
p180
aS'ok'
p181
aS'my username is that'
p182
aS'ok'
p183
aS'you are my favorite muser my question to you is who do you prefer drake or logic'
p184
aS'cool'
p185
aS'darknitroc or carlitos'
p186
aS'ok btw your vines are halaroius'
p187
aS'can you marry your bff'
p188
aS'i meant the one about mcdonald s'
p189
aS'i dont have an instagram sorry but if i ever do get one i will'
p190
aS'i also have an idea for a musically you could make'
p191
aS'ok'
p192
aS'hi i l ve your mudical lys they re so creative and funny'
p193
aS'daisy'
p194
aS'i think ur an awesome muser and i hope u can respond to me'
p195
aS'i hope you respond'
p196
aS'how do you come up with these ideas for musical lys'
p197
aS'yea no problem'
p198
aS'welp hello'
p199
aS'could you follow me on musically my account is ball r'
p200
aS'hi can you follow me on instagram please it would mean a lot to me'
p201
aS'i love your musiclys'
p202
aS'respond now'
p203
aS'hey kyle i love your vines and musicallys'
p204
aS'if you want to follow me my username is ty the greatt'
p205
aS'dude you don t have to text me u can text me whenever your free bro well my name is andrew'
p206
aS'sweet your awesome i ve been watching all you videos on vine and musicly'
p207
aS'no leave me alone'
p208
aS'ok do u have musicl ly'
p209
aS'my name is julia'
p210
ag13
aS'hi'
p211
aS'your welcome'
p212
aS'please answer me'
p213
aS'bye'
p214
aS'ok'
p215
aS'woooooow so how many people have texted you yet'
p216
ag13
aS'ok'
p217
aS'okay thanks for letting me know hi i just wanted to say whenever i m sad i always take a look at your videos your videos always put a smile on my face so thank you for that'
p218
aS'yay'
p219
ag13
aS'my name is joaquin song master'
p220
aS'i was wondering for a follow back'
p221
aS'hey kyle i really like your musiclys and i think its amazing that you come up with all of these ideas cause there truly amazing'
p222
aS'i m a big fan'
p223
aS'hey'
p224
aS'they are so relateable and wow'
p225
aS'heyy'
p226
aS'i freaking love ur musicallys'
p227
aS'sweet'
p228
aS'was that you or does it send that message to everyone at first'
p229
aS'btw hi im a huge fan'
p230
aS'musical ly'
p231
aS'hi'
p232
aS'your'
p233
aS'hi im a huge fan and i just wanted to say that your hilarious and i love ur musical lys have a great day'
p234
aS'can i have a bff crimsonfan is my user'
p235
aS'thank you so so much for replying'
p236
aS'just want to say thanks for putting a smile on my face everyday your musical lys make me laugh soooo much'
p237
aS'ok'
p238
aS'are you able to reply'
p239
aS'your so funny you make me laugh when i m sad'
p240
ag13
aS'your welcome thx so much for responding'
p241
aS'i m sorry i don t have instagram'
p242
aS'hello'
p243
aS'hows your summer been so far'
p244
aS'hi is this kyleexum if so i was wondering if you could bff me please i know that you probably get asked this a lot but i would appreciate it there is nothing special about me i am not sick no one died but i am just a huge fan thanks lauren'
p245
aS'omg'
p246
aS'okay'
p247
aS'ok thx'
p248
aS'please answer me'
p249
aS'what do u think inspired u the most'
p250
ag13
aS'wassup'
p251
aS'hiiii omg ur are like the most funniest muser ever that i am following this is so nice what u are doing right now people might think this is a bad idea but i don t i hope u reply and one more thing can u pretty plz bff me that would mean alot to me and to know who u are talking to my user name is gogo hope u reply'
p252
aS'okay thanks'
p253
aS'i know you are busy texting other people but i just wanted to sy ur music lys are amazing and hilarious'
p254
aS'can you follow me'
p255
aS'i love your musical ly'
p256
aS'omg is this really u'
p257
aS'paige conn'
p258
aS'hey this is jaiden i love you omg hey'
p259
aS'hi my name is anaiyah'
p260
aS'bff me'
p261
aS'ok just to let i know u funny as shit funniest youtuber'
p262
aS'well u dont have to'
p263
aS'can you bff me and follow me please'
p264
aS'my musical ly is nickislit you don t have to like or follow but it would be cool if you checked it out and tell me what i need help on'
p265
aS'same just chillin'
p266
aS'what s your favorite color'
p267
aS'its raplikeaboss from musically'
p268
aS'thanks for responding'
p269
aS'please respond'
p270
aS'ok'
p271
aS'hey kyle my name is mary and i think you re super funny i just wanted to ask you what it was like whenever you got your first feature on musical ly just curious maryellasanders p s i love your pok mon go musical i can so relate'
p272
aS'hi i love all of your videos'
p273
aS'thx'
p274
aS'is this just a automatic message or kyle'
p275
aS'ok'
p276
aS'do you think you will ever become a professional rapper ps this is really cool'
p277
aS'oh btw this is brah itz madison off of musically'
p278
aS'hi'
p279
aS'can u plz follow me on musical ly malaysia oquinn'
p280
aS'i m a big fan'
p281
aS'oh wow i m stupid ur insta is on ur page oops'
p282
aS'hi'
p283
aS'hiiii'
p284
aS'hi you are my favorite muser and you are hilarious in your musicallys'
p285
aS'hi i m maya and i love ur musical lys'
p286
aS'omg hi you are realy funny i m bobby'
p287
aS'ok'
p288
aS'hi i m makayla i m a really big fan i love your music ly s your really good at them and funny'
p289
aS'hi'
p290
aS'thank u'
p291
aS'how are you'
p292
aS'hi'
p293
aS'ok is this an iphone'
p294
aS'omg you reaponded i follow you on musical ly and instagram'
p295
aS'ilysm your so funny omg ah'
p296
aS'i m gonna cry'
p297
aS'what s ur favorite superhero'
p298
aS'is this the real kyleexum'
p299
aS'hi'
p300
aS'i love your vines and musicallys your so funny'
p301
aS'yeah no problem'
p302
aS'omg hi'
p303
aS'ok thanks'
p304
aS'omg i love your music lys'
p305
aS'omg'
p306
aS'where do u live'
p307
ag13
aS'ight'
p308
aS'follow me trinbooboo'
p309
aS'so cool'
p310
aS'hi'
p311
aS'ok of course'
p312
aS'omg thx so much'
p313
aS'your welcome'
p314
aS'follow as well and please do a duet it would mean the world to me it would be a birthday gift'
p315
aS'is this kyle'
p316
aS'hi'
p317
aS'hey'
p318
aS'okie dokie'
p319
aS'you re hilarious'
p320
aS'ok great'
p321
aS'hey'
p322
aS'hey its brandy'
p323
ag13
aS'sure'
p324
aS'can u follow me back'
p325
aS'and also thanks for the bff it really made me happy i was screaming when you bffed me i was so excited'
p326
aS'hey kyle please answer imma huge fan'
p327
aS'ok'
p328
aS'my name is lovely queen love'
p329
aS'ok thx'
p330
aS'you are the awesome one for texting me back you are so nice to give out your number because it is making me and everyone else happy'
p331
aS'you welcome thank you for responding'
p332
aS'bff'
p333
aS'hey kyle my name is jordan and i m from georgia i watch almost all of your musicallys they are amazing just like you you make me laugh at the worst times so i just want too say thank you and i love you and please bff me jojodean thanks i love you'
p334
aS'big fannnnn'
p335
aS'hi kyle i really like the content you create and you make me laugh everyday we must live close because we both start with in our phone numbers'
p336
aS'it s allbree join me on textplus send free text call any phone number reach textplus users around the world free get it http textplus me i'
p337
aS'and btw your musicallys are so funny'
p338
aS'what is your bay job'
p339
aS'this is amazing that you are doing this for your fans'
p340
aS'ok'
p341
aS'the rest of the vids were awesome keep it up'
p342
aS'ok message this is awkward plz don t text back'
p343
aS'ok'
p344
aS'hey is this kyle'
p345
aS'hello'
p346
aS'sounds good'
p347
aS'hi you are so funny'
p348
aS'hi i don t want to be one of those people who say oh follow me but it would be a really good idea it is ana awesome for musically'
p349
aS'connorb'
p350
aS'it would be so cool if you followed me'
p351
aS'this is going to sound really corny but i m guessing you like popcorn sooo anyway i love your videos so much they are hilarious and i think that this idea of having a separate number to interact with your fans is really cool i hope you get to reply to my text and hopefully check out my musically username juliareichhhh'
p352
aS'this is me btw'
p353
aS'k'
p354
aS'i love your sketch comdies my question is how did you find musically'
p355
aS'can you'
p356
aS'big fan'
p357
aS'thank you i love your musicallys and your instagram post'
p358
aS'hey'
p359
aS'hi kyle'
p360
aS'hello'
p361
aS'your girl a thot'
p362
aS'ok'
p363
aS'say i think you re so funny and always seem to make my day i m so'
p364
aS'hello'
p365
aS'ur so funny'
p366
aS'ok'
p367
aS'ok'
p368
aS'your so welcome tbh your always making me smile even when im upset'
p369
aS'how long have you had musical ly'
p370
aS'can i have a bff on music ly'
p371
aS'k thx'
p372
aS'you should start a youtube channel'
p373
aS'hi i am toxinpvpz you are hilarious i love all your videos'
p374
aS'love'
p375
aS'thank you'
p376
aS'welcome your cute and funny'
p377
aS'i know this is our of nowhere but what s your favorite emoji'
p378
aS'send me a pic i want to know if it s actually u'
p379
aS'already did'
p380
aS'kyle how do u come up with the idea to make your musical lys'
p381
aS'hi is this dan'
p382
aS'hi'
p383
aS'ok'
p384
aS'respond lol'
p385
aS'omg can u plz follow me on musical ly at kamya plz'
p386
aS'hello'
p387
aS'hi'
p388
aS'i already do and i turn you post notifications on'
p389
aS'no problem'
p390
aS'ok'
p391
aS'hi im jaya i just wanted you to know how amazing you are you make me smile every day thank you for being soooo great'
p392
aS'hi'
p393
aS'hi kyle ur vines and musical lys are hilarious and i can relate to them hope you can reply soon'
p394
aS'my musical ly is jmoney and my instagram is jgotgame'
p395
aS'kyle i m ur biggest fan'
p396
aS'hi i like how you do those funny video some of them are actually true'
p397
aS'okay dope'
p398
aS'my name is kyle'
p399
aS'omg im a huge fan'
p400
aS'do you like to make people laugh darnaysia'
p401
aS'hello are u making any new vids'
p402
aS'test'
p403
aS'okay i m fan of your musical ly s they are the best when you make them your own'
p404
aS'i m not a spam'
p405
aS'ight'
p406
aS'hiiiiiiii'
p407
aS'hi'
p408
aS'hi'
p409
aS'ok'
p410
aS'yay that s awesome i was wondering if u could plz follow me'
p411
aS'omg kyle i m your biggest fan'
p412
aS'hi my name is gabby and i think you are really funny'
p413
aS'hello'
p414
aS'your so funny'
p415
aS'thx'
p416
aS'hi kyle i love your musically s i hope you are having a good day your super funny'
p417
aS'ok'
p418
aS'cuz that would be soooo cool'
p419
aS'hiii'
p420
ag13
aS'no problem'
p421
aS'thanka'
p422
aS'thank you so much'
p423
aS'but can u follow my musically'
p424
aS'no problem man i just wanna say thank u'
p425
aS'hey kyle exum can you text me on musically please my name is youtuberecorder in musically'
p426
aS'what is your major'
p427
aS'hi'
p428
aS'hey how are you and thats fine i m sure you phone is blowing up right now but i love your videos i think your absolutely hilarious kyle i hope your having a good day i hope this message puts a smile on your face oh and my name is kassandra by the way'
p429
aS'hi'
p430
aS'thank you so much'
p431
aS'hey'
p432
aS'hi my name is grace and i d just like to let you know how much your vines mean to me i mean your amazing you make me laugh even when i m down thank you for that'
p433
aS'hi kyle i love your musical ly videos they are so funny'
p434
aS'good job'
p435
aS'i also wanes to say could i get a bff on musical ly it would mean the world ilysm btw ur soooooooo funny'
p436
ag13
aS'too'
p437
aS'i saw your musically with the respomding thing'
p438
aS'can you bff and follow me on musically abbyecowan'
p439
aS'i know that they are like people texting u but u are so funny and cool please do a duet or give me a shoutout name parker davis'
p440
ag13
aS'how do you get a crown on musicaly'
p441
aS'thank you so much i can t believe i m actually talking to you'
p442
ag13
aS'hi i can t believe this i am such a fan of your musical lys you are so funny if you can can you start request for future musical lys and mention people who requested it in your musical lys that would be wonderful i know i m asking for a lot but can you follow me lol i get if you don t want to but please it would mean the world to have my favorite muser follow me my musically is melon and i will be posting musical lys a lot i just deleted them because of difficulties i m sorry i m asking a lot thank you for being my favorite muser i love you'
p443
aS'hi'
p444
aS'hi kyle you are soooo funny and i love watching your videos it would be great if you could bff me on musically but i understand if you don t want to because everyone is probably asking just in case my username is dr i have one question how do you come up with your originals do they like spontaneously come to you or something please try to respond'
p445
aS'hi kyle exum this is your fan goku prime'
p446
aS'i never asked if it is u'
p447
aS'hi i just want you to know ur an amazing person u make me laugh all the time so stay happy and stay funny'
p448
aS'hey kyle'
p449
aS'idk i m just curious'
p450
aS'it is ballin life i dont have a snap or ig or facebook or twitter or anything just musically'
p451
aS'can u talk now'
p452
aS'okay i can t believe i m actually talking to u'
p453
aS'that means so much to me'
p454
aS'and i rlly wanna talk'
p455
aS'can i make a duet with you'
p456
ag13
aS'what'
p457
aS'i love all of your musicallys your so funny'
p458
aS'skyler'
p459
aS'hi i love u'
p460
aS'trying to get more and follower makes a difference'
p461
aS'k'
p462
aS'ok could u follow me on musically i would be so happy'
p463
aS'your my inspiration on musical ly who s your number one inspiration and how are you so funny'
p464
aS'hi'
p465
aS'i love your musical lys and ur really relatable'
p466
aS'hey you probably won t see this but i love your vines and your musicallys they are all hilarious'
p467
aS'can u plz follow me on musically'
p468
aS'hi kyle i ur musical lys they are funny and relate do everyday life'
p469
aS'thank you for messaging me back'
p470
aS'omg thx this means so much to me i love you your so funny'
p471
aS'omg you r soooooo funny'
p472
aS'ok'
p473
aS'hiiiiii i m a huge fan ok what s your favorite show'
p474
aS'ok'
p475
aS'your videos are awesome'
p476
aS'omg thanks for replying'
p477
ag13
aS'omg you responed tysm ly'
p478
aS'omg i love ur musicals they r so funny plz follow me'
p479
aS'i love the skits you do on musical ly'
p480
aS'will u bestfriend me'
p481
aS'hey'
p482
aS'your welcome'
p483
aS'again'
p484
aS'welcome'
p485
aS'me'
p486
aS'omg i can t believe you responded i m so happy thank you so much maybe we could talk sometime'
p487
aS'make a new music ly'
p488
aS'hey'
p489
aS'okay'
p490
aS'can u follow me'
p491
aS'your musically are so funny'
p492
aS'is your real name kyle exum or is that just a name you use on musical ly'
p493
ag13
aS'hiiiiiui'
p494
aS'when did u start making musicallys'
p495
aS'if u don t answer it s gucci'
p496
aS'aye my name is noah'
p497
aS'my instagram is jayrel'
p498
aS'what'
p499
aS'wyd'
p500
aS'wyd'
p501
aS'day made'
p502
aS'hi'
p503
aS'hey'
p504
aS'hi kyle u have amazing videos'
p505
aS'is this real'
p506
aS'that s insane'
p507
aS'ok i can t wait to talk'
p508
aS'you re welcome'
p509
aS'can i talk to you now'
p510
aS'watching a movie'
p511
aS'they are so funny'
p512
aS'thank you so much for answering can i ask you a question'
p513
aS'hey kyle hope u see this and if can i get a shout out on instagram please and have a great day'
p514
aS'keep making funny skits they make me laugh everyday'
p515
aS'ok'
p516
aS'hey is this kyle exum from musically if it is i just want to say i love your musicallys so much they are honestly amazing my musically is musiclover i will try to expect u if i don t then i m sorry i m really shy and i only like people i know in person to follow me i know your not getting any hate and that s good but in the future if u do remember this don t let haters take u down u are an amazing person and be who u are sorry for the long message there so many things i want to say because i have so many nice things to say about u if u know what i mean have an amazing night day afternoon whatever time it is when your reading this'
p517
aS'heyyy haha i just wanted to let you know i m a really big fan of your videos and that i think you re hilarious feel free to follow me lol rockstarcamille'
p518
aS'i love your videos on musical ly they re sooooo funny one of my favorites is the pokemon go one please respond'
p519
aS'plz answer me'
p520
aS'i love your musical lys my musical ly name is tristen van you are so funny plz no that you vids are awesome and i know that you have millions of messages but i want you to know if you see this plz say hi'
p521
aS'do you think you could follow me or no'
p522
aS'you re so funny i love your videos so much'
p523
aS'omg omg omg'
p524
aS'can u follow my musical ly trublu ur one of my favorite musers'
p525
aS'your welcone'
p526
aS'k thanks btw your musical lus are awesome'
p527
aS'i have a question'
p528
aS'what s goooood'
p529
aS'u have inspired me to do musical ly'
p530
aS'ok and i m honestly like ur biggest fan'
p531
aS'cool'
p532
aS'can you please give me tips for musically pls i really will appreciate it if you do'
p533
aS'just uploaded a musically'
p534
aS'hiii'
p535
aS'hey'
p536
aS'omg hi the main thing i wanted to say is thank you so much for just being amazing u always brighten up my day when u post a musically even when i didn t want to smile i did because of u so thank you for always being yourself'
p537
aS'taylorwalker'
p538
aS'which one do i text on'
p539
aS'hi kyle i love your musical ly videos so much'
p540
aS'thank you'
p541
aS'hey man love your miniature vines on musically they always make me laugh keep the work up'
p542
aS'you re funny'
p543
aS'omg u responded'
p544
aS'omg is this kyle'
p545
aS'how are you'
p546
ag13
aS'thx my dad is in the army so sometimes i get sad watching your musical lys make me happy pls call me'
p547
aS'how old are you'
p548
aS'are you real or is this a computer'
p549
aS'ok'
p550
aS'hi'
p551
aS'i tag i in everything'
p552
aS'hiii'
p553
aS'can you bff me'
p554
aS'wazzup'
p555
aS'man'
p556
aS'hi what inspired you to make comedies'
p557
aS'oh that s awesome well i hope it works out for you thanks for responding'
p558
aS'tbh you chill your vids are hilarious i really wish you would reply cuz it s my birthday ily sm'
p559
aS'hey'
p560
aS'your welcome omgggg thank you so much for replying u dont know how much this means to me'
p561
aS'thank you u are the best'
p562
aS'and i like ur mom raps there are so hilarious'
p563
aS'hello i m a big fan of you musically account i would love if i could have a bff i d cry for joy for a million years well i hope you have a good rest of your day'
p564
aS'why did you respond to my snapchat and i just wanted to say you made'
p565
aS'hi'
p566
aS'anwser plz'
p567
ag13
aS'hi'
p568
aS'thanks hi kyle this is caroline i m one of your biggest fans ever you are so funny to me and i love it my musical ly is caroline gray you ve probably seen me like all of your musical lys because i love your account and all your comedy skits i would love it if you could bff me i love how you come up with your skits you are a great actor to thank you so much for making me laugh please answer'
p569
aS'hi kyle i love ur musicallys ur so funny and make me laugh every time i watch them if u could do a live stream one day that would be really cool'
p570
aS'hi i am a huge fan can you follow me on musically'
p571
aS'can i have a shoutout'
p572
aS'all of this i am really happy'
p573
aS'i like your vines and mom raps i think they are very funny'
p574
aS'oml im such a big fan you look like a fun friend to hang with my name for musicl ly is rainbowgirl i hope you can check me out'
p575
aS'do you use vine if so when did you start and why'
p576
aS'hi kyle my name is abby i love your musical lys'
p577
aS'how were you inspired to do them'
p578
ag13
aS'omg ok'
p579
aS'hay'
p580
aS'your'
p581
aS'can you follow me on musically it s itztantheman'
p582
aS'i love your content specially your vines i like watching them when i get home from school and had a rough day they make me laugh whenever i hear one of your vines it reminds me to be happy sometimes it even is the highlight of my week i hope you keep making vines are really funny i ll definitely keep watching thanks if you answer to my message'
p583
aS'just wondering i know your busy but did you read my um text yet'
p584
aS'how are u so funny on musical ly'
p585
aS'hey this is ruben'
p586
aS'ok thank you'
p587
aS'ok when you do can you follow me on snapchat please at emsanders'
p588
aS'hi fren hi yes ok i have like no idea what to say just hi i really like your musicallys xd k byee'
p589
aS'i love you vines and musical lys'
p590
aS'thank you and you also say awesome'
p591
aS'ok'
p592
aS'your welcome'
p593
aS'hi'
p594
aS'thx so much i m a big fan and everything u post is so true i told all my friends so follow u'
p595
aS'i dont have it'
p596
aS'okay so what s up'
p597
aS'hey'
p598
aS'ok'
p599
aS'what is your favorite tv show'
p600
aS'i think you are awesome and i think your musicallys are awesome'
p601
aS'okay'
p602
aS'i don t have instagram sorru'
p603
aS'sup im a really big fan'
p604
aS'i love your musical lys your so funny'
p605
aS'hey kyle'
p606
aS'your teacher rap made me laugh for a week because it was so true thank you for being super funny'
p607
aS'how r u'
p608
aS'you post cool videos keep doing what your doing'
p609
aS'hi'
p610
aS'no problem'
p611
aS'okay'
p612
aS'what are you doing'
p613
aS'kk thx'
p614
aS'hello'
p615
aS'on musically'
p616
aS'lol not fan girl so much but i can t believe i m actually texting u'
p617
aS'what s good kyle you make some creative musical lys where did the ideas come from'
p618
aS'hey kyle this is julianna and i just wanted to say that i m such a big fan you were the first viner i watched and the st person on musical ly you are super funny and i am glad that you set this up so i can actually talk to you well at least kind of i would be so so happy if you would respond and maybe even follow my musical ly or instagram my musical ly is julianna and my instagram is j bae'
p619
aS'too'
p620
aS'your really funny by the way'
p621
aS'hi'
p622
aS'i m spamming you with like right now'
p623
aS'you re super funny'
p624
aS'is it really u'
p625
aS'follow me rohanion i d appreciate it'
p626
aS'bbiegs is my username'
p627
aS'hi kyle you are my favorite muser ur so funny and my favorite musically was the one about taking attendance with shith ad will you plz follow me duet shoutout bff me plz my username is ashley heinrich if u see this it will make me so happy'
p628
aS'you take all the time you need your awesome'
p629
aS'hi'
p630
aS'and always make me laugh so thanks for that'
p631
aS'im your biggest fan can you please follow me on musically my musically is karounga'
p632
aS'hello i just wanted to say your really funny and i love your musicals they just make me laugh so much your so awesome i watch and like almost everyone of your musicals if be so happy if you took a look at my account i m yuna thank you'
p633
aS'hi'
p634
ag13
aS'okay hey kyle sounds cool so wyd btw ur videos are funny'
p635
aS'yay i love all ur videos'
p636
aS'ok'
p637
aS'oh my gosh thank you'
p638
aS'u look so much older on musically that s so cool'
p639
aS'kool thanks man i love you are awesome'
p640
aS'i meant an instead of and'
p641
aS'what'
p642
aS'love desi'
p643
aS'omg i cant believe you actually texted me'
p644
aS'hi'
p645
aS'ok'
p646
aS'and ur really good at making people laugh'
p647
aS'what'
p648
aS'i m not expecting you to answer but i look up to you'
p649
aS'cool'
p650
aS'i love u so much i think ur so funny and it would mean the world if u responded'
p651
aS'ok'
p652
aS'hey i love your musical ly s you re really funny haha and thanks for bffing me'
p653
aS'i liked like almost all your videos'
p654
aS'cool hi'
p655
aS'wn to earth'
p656
aS'ok thx'
p657
aS'it would mean so much of i got a follow your videos are so funny just incase lovelylove'
p658
aS'hey'
p659
aS'ily'
p660
aS'hi'
p661
aS'kylexum has posted a new musical c ya'
p662
aS'ight'
p663
aS'kyle you are also an inspiration to me and everyone keep it up love u man'
p664
aS'all i want is one hi or something plz'
p665
aS'hey kyle ur a funny guy thanks for all you do'
p666
aS'hi kyle'
p667
aS'ok'
p668
aS'i love your musicly'
p669
aS'kyle hey hows life'
p670
aS'hi kyle i m a huge fan and i think your super funny ilysm'
p671
aS'ok'
p672
aS'hi is this kyle'
p673
aS'can u plz follow me on musicly matheushd'
p674
aS'hi kyle'
p675
aS'hey is this kyle'
p676
aS'hii'
p677
aS'reply help to opt out florence korsah hi'
p678
aS'ok omg hi i am a huge fan of you please respond to this and i just had a question can you follow me and did your parents actually do that to you thank you so so much for responding back i love what you do keep doing and do you do youtube i really wanna know if not try it out i think you ll be really good at it'
p679
aS'hey kyle love your videos so much hope your having a great day'
p680
aS'getting a chance to text you is already awesome enough'
p681
aS'yooo you responded but bro i really enjoy your vines keep grinding and never stop'
p682
aS'your welcome when i m feeling upset i just go watch ur videos to make me smile have a good day love you'
p683
aS'hey'
p684
aS'i follow you on misicly and i am a big fan'
p685
ag13
aS'your musicals are hillarious by the way'
p686
aS'no problem there awesome'
p687
aS'are you here'
p688
aS'hi'
p689
aS'yay'
p690
aS'ok i just can t believe i m really talking to u'
p691
aS'okay'
p692
aS'ok'
p693
aS'hey i love you musicallys though'
p694
aS'ok that sounds good'
p695
aS'kyle exum can you bff me on musical ly simeron'
p696
aS'ok'
p697
aS'hey my name is sierra and your videos make me laugh every day i stress very easily and i just wanted to thank you for making me laugh and smile every day and even if people hate just keep doing what your doing because you are making an impact on people s lives thank you'
p698
ag13
aS'being a inspiration for me'
p699
aS'how are you doing'
p700
aS'ok'
p701
aS'really'
p702
aS'hi you re really funny and i love your videos so much'
p703
aS'hi'
p704
aS'ok thank u soo much'
p705
aS'or bff'
p706
aS'can u follow my mussically account happy luve'
p707
aS'hey'
p708
aS'hi kyle'
p709
aS'np'
p710
aS'will you'
p711
aS'ok'
p712
aS'piz follow me'
p713
aS'hey i really like your videos you do an amazing job keep up the hard work'
p714
aS'wesome'
p715
aS'okay'
p716
aS'plz reply'
p717
aS'ok'
p718
aS'fav viner'
p719
aS'hi kyleexum i sent a message to the number u set up on musical ly and it told me i could message u directly'
p720
aS'hello i just wanted to let you know that i love your videos they are hilarious and they are very relatable your videos always makee laugh'
p721
aS'ilysm'
p722
aS'who is your favorite muser'
p723
aS'hi kyle'
p724
aS'wyd'
p725
aS'omg hiii'
p726
aS'no problem'
p727
aS'is this real or nah'
p728
aS'oh my gosh you answered im dead'
p729
ag13
aS'hello'
p730
aS'thank you so much for making funny videos and making smile laugh every day also one question what do you love most about your fans'
p731
aS'can u bff me or follow me on musically i follow u'
p732
aS'you should follow me on instagram its burton maddi'
p733
aS'ok omg love you'
p734
aS'you are my favorite person on musical ly'
p735
aS'love your videos so much'
p736
aS'hi can you please repond im a really big fan and i really love you so much your awsome funny and also can you follow me on musically princess marissa bff'
p737
aS'your musical ly videos are amazing'
p738
aS'hey kyle i love ur musicallys you re rlyyyy funny thx for letting us text u and i can t wait to hear more of ur raps they re lit hope u see this'
p739
aS'hey bro keep up the good work'
p740
aS'kyle'
p741
aS'your choice'
p742
aS'my name is bre'
p743
aS'hi'
p744
aS'u r one of my favorite musers'
p745
aS'of course love'
p746
aS'what do you do for a living'
p747
aS'and i would love to be like you someday my musically is danny boi if you wanted to follow me or check out my musicals thanks'
p748
aS'hi'
p749
aS'your welcome'
p750
aS'it s my birthday and it would make my day of u texted me'
p751
aS'it s raiden player'
p752
aS'hi'
p753
aS'omg ok'
p754
aS'i love you'
p755
aS'hi'
p756
aS'i m a huge fan'
p757
aS'hi kyle'
p758
aS'so how is life'
p759
aS'i love your musicallys u are so relatable'
p760
aS'hey it jaidon and your so funny you make me laugh every day please follow me jumpmanj'
p761
aS'are you an automatic machine'
p762
aS'i m mason'
p763
aS'can u follow me'
p764
ag13
aS'ok'
p765
aS'my account name is ems yaa'
p766
aS'plz respond'
p767
aS'its jumpin like jordan'
p768
aS'your welcome i like the one you just posted there all so relatable'
p769
aS'your videos'
p770
aS'hey kyle'
p771
aS'how old are you'
p772
aS'thank you i love you so much you are hilarious'
p773
aS'i love your video so funny'
p774
aS'thanks'
p775
aS'hey kyle your really really funny'
p776
aS'hi my name is allie i was wondering what things i m allowed to text you'
p777
aS'hi i love your musical lys they make me laugh every time i see them'
p778
aS'is this kyle exum from musical ly if so i m gonna say that ur funny and i m big fan of u'
p779
aS'sup'
p780
aS'ur welcome'
p781
aS'hi'
p782
aS'hey kyle'
p783
aS'hey you are the best i am one of your fans'
p784
aS'are u gonna ever have meet and greet in carrolton texas'
p785
aS'hi'
p786
aS'send me a picture'
p787
ag13
aS'hi'
p788
aS'best'
p789
aS'ok luv u'
p790
aS'you are my favorite muser and i m sorry for spamming you'
p791
aS'omg i love you musicals and videos and vine u are so amazing i am ur biggest fan ever'
p792
aS'hello'
p793
aS'kyle can u please follow me it eli manning with an eli manning pic'
p794
aS'ok'
p795
aS'are you real cause i m about to flip'
p796
aS'hello'
p797
aS'hi i am one of your followers and i like all your videos they are always super good and hilarious if you could text me back i would be the happiest person in the worl'
p798
aS'sup'
p799
aS'hi kyle my name is zoey and i just wanted to tell you that i highly appreciate your vines skits and they always lift me in a good spirit'
p800
aS'yo kyle idc if you don t see this but i love all of your vines they are so funny and original love your work'
p801
aS'spell check'
p802
aS'omg hi ur a really big inspiration to me u cheer me up when i m down all the time and it is my birthday so it eould make my day if u texted me back a simple word would make me happy'
p803
aS'i love your musical ly'
p804
aS'oml is this actually kyle i love your vines so much you make me laugh so hard'
p805
aS'hi'
p806
aS'hello'
p807
aS'that s cool i just wanted to say that you make amazing musicals and you are so funny your the best'
p808
aS'i love the thot song'
p809
aS'thank you so much im such a huge fan'
p810
aS'so it s been exactly an hour so can you talk'
p811
aS'fan'
p812
aS'hi kyle'
p813
aS'i m a big fan of u i love your musicallys'
p814
aS'hey'
p815
aS'ok thanks i love your musical ly s'
p816
ag13
aS'wait so you ll text me'
p817
aS'omg thank you so much'
p818
aS'thank you'
p819
aS'my username is khanjr'
p820
aS'i m jordin and i m a big fan'
p821
aS'i love your videos'
p822
aS'im bored jus layin in bed'
p823
aS'awesome i think it s super cool that you can do this with your fans i just wanted to say your videos are really funny and always put a smile on my face i hope you had a great day'
p824
aS'do u have time to talk btw my name is juliana but u can call me j'
p825
aS'cool that is cool that u just think of ways parents get mad and it come to your mind'
p826
aS'omg i m such a huge fan'
p827
aS'i already do'
p828
aS'hay i love your vines your really talented can you try to post me you magke me laugh so much'
p829
aS'hey i am i big fan of you please answer'
p830
aS'i love your musicllys'
p831
aS'hi'
p832
aS'im a big fan'
p833
aS'hey can u follow me plz and bff me plz it would be awesome'
p834
aS'ok'
p835
aS'hi'
p836
aS'yay ok thank you'
p837
aS'i follow a lot of crowned people but you are my favorite'
p838
aS'if you don t can t respond it s ok don t worry'
p839
aS'is this actually u because if it you are one of my favorite musers'
p840
aS'so are you kyle are not'
p841
aS'ok'
p842
aS'np'
p843
aS'no problem'
p844
aS'hi can you follow me on musicly at mikem m'
p845
aS'this is real like real real'
p846
aS'that picture was of my friend'
p847
aS'i can t stop wacthing it'
p848
aS'good u should post more vines plz'
p849
aS'you make my day every time i watch your videos'
p850
aS'what country do u live in i live in savannah georgia'
p851
aS'your welcome and thx for responding no one ever famous does that'
p852
aS'hi'
p853
aS'thank you so much'
p854
aS'i love your musical lys'
p855
a.