(lp0
S'so which number do i txt u at'
p1
aS'do u have time to talk btw my name is juliana but u can call me j'
p2
aS'hi kyle i m so excited to text u can i get a bff please i just wanna do at least musical ly with u'
p3
aS'sweet'
p4
aS'can u follow me'
p5
aS'i love your content specially your vines i like watching them when i get home from school and had a rough day they make me laugh whenever i hear one of your vines it reminds me to be happy sometimes it even is the highlight of my week i hope you keep making vines are really funny i ll definitely keep watching thanks if you answer to my message'
p6
aS'wesome'
p7
aS'ilysm'
p8
aS'sorry to interrupt but can you bff me on musicl ly'
p9
aS'big fannnnn'
p10
aS'hi'
p11
aS'ur awesome'
p12
aS'hello'
p13
aS'sounds good'
p14
aS'cool'
p15
aS'ok'
p16
aS'i meant demon'
p17
aS'hi i m you biggest fan i love you'
p18
aS'ok'
p19
aS'how are u so funny on musical ly'
p20
aS'can i talk to you now'
p21
aS'happy i was dying when i watched your video about people that play'
p22
aS'ok thx'
p23
aS'thanks'
p24
aS'ok cool'
p25
aS'no problem can you follow me on musically and can we start a streak on snap chat'
p26
aS'k'
p27
aS'hello'
p28
aS''
p29
aS'hi kyle'
p30
ag29
aS'well if it s really u then follow me on musical ly djbryant to prove it'
p31
aS'ok'
p32
aS'hi kyle i saw your musicly about this number and i just wanted to tell you that you are really funny and always make me smile'
p33
aS'hey kyle'
p34
aS'hi can you follow me on musicly at mikem m'
p35
aS'pls'
p36
aS'ok that sounds good'
p37
aS'kyle you are also an inspiration to me and everyone keep it up love u man'
p38
aS'hey'
p39
aS'taylorwalker'
p40
aS'i like your vines and mom raps i think they are very funny'
p41
aS'what are you doing'
p42
aS'can you bff me on music ly carissa campbell'
p43
aS'if you do not follow me i will unfollow you and i will cry'
p44
aS'my user on musically is mmaulik plz bff me'
p45
aS'you should start a youtube channel'
p46
aS'no problem follow me on instagram king of mlb'
p47
aS'hi bff me on musicly username is trevorz dirtbike'
p48
aS'again'
p49
aS'please answer me'
p50
aS'how many people text you know'
p51
aS'is it really you'
p52
aS'ok i love your musicallys'
p53
aS'i love ur vines btw'
p54
aS'omg thankyou ilysm'
p55
ag29
aS'your welcome omgggg thank you so much for replying u dont know how much this means to me'
p56
aS'ok love you'
p57
aS'please answer'
p58
aS'ur so funny'
p59
aS'my musical ly is jmoney and my instagram is jgotgame'
p60
ag29
aS'and i rlly wanna talk'
p61
aS'ok'
p62
aS'hi i just want you to know ur an amazing person u make me laugh all the time so stay happy and stay funny'
p63
aS'hey kyle you make amazing vids'
p64
aS'ok'
p65
aS'i love your musicallys u are so relatable'
p66
aS'day made'
p67
aS'hi thanks'
p68
aS'i m a girl'
p69
aS'i m not spam i m a fan i can t get to your other number because i m from uk so it costs money but thank you for letting your fans be able to contact you and risk yourself of getting random messages for your fans u are really funny and to think of these reap life situations it s really great thanks kyle from a fan'
p70
aS'hi i seen this number on music ly and i just wanted to say i love ur videos and when i feel sad i watch them and i get happy so thx'
p71
aS'your'
p72
aS'can u follow my musical ly trublu ur one of my favorite musers'
p73
aS'omg you r soooooo funny'
p74
aS'is this kyle exum from musical ly if so i m gonna say that ur funny and i m big fan of u'
p75
aS'thank you for messaging me back'
p76
aS'can u bff me on musical ly'
p77
aS'hi'
p78
aS'sup'
p79
aS'i love u so much i think ur so funny and it would mean the world if u responded'
p80
aS'hey kyle i m a big fan of your vines and musical lys your awesome'
p81
aS'too'
p82
aS'but if it wasn t an automated message omg i am like your biggest fan ever'
p83
ag29
aS'if you don t can t respond it s ok don t worry'
p84
aS'hi kyle you re a big inspiration to me and i d like to say thank you for being hilarious'
p85
aS'ok thanks'
p86
aS'follow as well and please do a duet it would mean the world to me it would be a birthday gift'
p87
aS'hi i m a huge fan'
p88
aS'hey kyle'
p89
aS'that s awsome'
p90
aS'awesome i love your videos'
p91
aS'hey'
p92
aS'your musicals are hillarious by the way'
p93
aS'hello'
p94
aS'hello'
p95
aS'ok'
p96
aS'hi'
p97
aS'hi my name is allie i was wondering what things i m allowed to text you'
p98
aS'oops wrong number'
p99
aS'still got to talk to you'
p100
aS'it means a lot to me'
p101
aS'hi i love u sooo much i love your musicallys and you are hilarious and u have great humor my name is heidi and musically username is heidi'
p102
aS'kyle we live in the same town and we met twice in barnes and noble omg im such a huge fan ur hilarious'
p103
aS'thank you so much'
p104
aS'ok'
p105
aS'can u plz follow me'
p106
aS'can u plz follow me because today s my birthday and my musical ly is javi savage'
p107
aS'kyle'
p108
aS'do you use vine if so when did you start and why'
p109
aS'sure thing'
p110
aS'kyle'
p111
aS'i m good do you have any siblings'
p112
aS'can u plz follow me on musically'
p113
aS'hi'
p114
aS'hi kyle'
p115
aS'inspiration'
p116
aS'i follow you on misicly and i am a big fan'
p117
aS'i think you are awesome and i think your musicallys are awesome'
p118
aS'hey'
p119
aS'okay'
p120
aS'ok'
p121
aS'k'
p122
aS'omg thank you your so awesome'
p123
aS'this is the most amazing day ever'
p124
aS'i can t believe i m talking to u in person lol'
p125
aS'okay thanks kyle'
p126
aS'omg thx this means so much to me i love you your so funny'
p127
aS'ok message this is awkward plz don t text back'
p128
aS'hi'
p129
aS'hey i would like to know if you can do bffs because some of your'
p130
aS'your teacher rap made me laugh for a week because it was so true thank you for being super funny'
p131
aS'ok'
p132
aS'omg hiiiii'
p133
aS'can i have a shoutout'
p134
aS'ok'
p135
aS'omg'
p136
aS'omg thank you so much you are so great'
p137
aS'thank you i love you so much you are hilarious'
p138
aS'ok'
p139
aS'ok'
p140
aS'i hope you respond'
p141
aS'hey kyle ur a funny guy thanks for all you do'
p142
aS'i love your musical lys and ur really relatable'
p143
aS'hi kyle'
p144
aS'hi is this kyleexum if so i was wondering if you could bff me please i know that you probably get asked this a lot but i would appreciate it there is nothing special about me i am not sick no one died but i am just a huge fan thanks lauren'
p145
aS'ok hi'
p146
aS'hi'
p147
aS'and is that really your voice in the obama mcdonald s music ly'
p148
aS'could you follow me on musically my account is ball r'
p149
aS'are u gonna ever have meet and greet in carrolton texas'
p150
aS'hi'
p151
aS'your welcome thank you so much for responding you just made my day'
p152
aS'you'
p153
aS'how s life'
p154
aS'hi i love u'
p155
aS'hi'
p156
aS'omg ok'
p157
aS'okie dokie'
p158
aS'watching a movie'
p159
aS'connorb'
p160
aS'hi'
p161
aS'hey its elaina your funny my musical ly is bbyla a'
p162
aS'hey kyle'
p163
aS'ok just to let i know u funny as shit funniest youtuber'
p164
aS'heyy i love you so much'
p165
aS'k'
p166
aS'ok will'
p167
aS'hello'
p168
aS'hey i love your musicallys they are so funny could u bff me duhitzange that would make my day'
p169
aS'when u search it up it said dabbwit lailah'
p170
aS'darknitroc or carlitos'
p171
aS'respond lol'
p172
aS'hi'
p173
aS'hey kyle please answer imma huge fan'
p174
aS'too'
p175
aS'i also have an idea for a musically you could make'
p176
aS'hello'
p177
aS'all i want is one hi or something plz'
p178
aS'hey kyle'
p179
aS'daisy'
p180
aS'are you here'
p181
aS'hi kyle i ur musical lys they are funny and relate do everyday life'
p182
aS'hi kyle'
p183
aS'hi can you follow me on instagram please it would mean a lot to me'
p184
aS'i love your musiclys'
p185
aS'hey'
p186
aS'ok i love your videos'
p187
aS'hi you re really funny and i love your videos so much'
p188
aS'okay'
p189
aS'oh my gosh you answered im dead'
p190
aS'no leave me alone'
p191
aS'ok do u have musicl ly'
p192
aS'hi kyle my name is zoey and i just wanted to tell you that i highly appreciate your vines skits and they always lift me in a good spirit'
p193
ag29
aS'kyle can u please follow me it eli manning with an eli manning pic'
p194
aS'your welcome'
p195
aS'they are so funny'
p196
aS'really'
p197
aS'ok'
p198
aS'woooooow so how many people have texted you yet'
p199
aS'hi'
p200
aS'hi'
p201
aS'ok'
p202
aS'hi my name is grace and i d just like to let you know how much your vines mean to me i mean your amazing you make me laugh even when i m down thank you for that'
p203
aS'my name is joaquin song master'
p204
aS'i was wondering for a follow back'
p205
aS'hi kyle my name is abby i love your musical lys'
p206
aS'i m a big fan'
p207
aS'your welcome'
p208
aS'hi kyle i love your musical lys and ur sooo funny i flipped when u made me bff ur my fav muser'
p209
aS'me'
p210
aS'hi'
p211
aS'hi'
p212
aS'you are awesome because you are the best thing that has happened to me'
p213
aS'hi i am one of your followers and i like all your videos they are always super good and hilarious if you could text me back i would be the happiest person in the worl'
p214
aS'musical ly'
p215
aS'hi'
p216
aS'good job'
p217
aS'hi'
p218
aS'thx'
p219
ag29
aS'all of this i am really happy'
p220
aS'hi im such a huge fan i live your funny musicallys'
p221
aS'ur so funny and awsome'
p222
ag29
aS'hi fren hi yes ok i have like no idea what to say just hi i really like your musicallys xd k byee'
p223
aS'welp hello'
p224
aS'if you want to follow me my username is ty the greatt'
p225
aS'hi'
p226
aS'ok thx'
p227
aS'ok'
p228
ag29
aS'hi'
p229
aS'hey man i just want to let you know you inspire me on musical ly and yeah i watch all of your musical ly and i love thim'
p230
aS'okay thanks'
p231
aS'they are so relateable and wow'
p232
aS'what s goooood'
p233
aS'hi kyle exum this is your fan goku prime'
p234
aS'ok'
p235
aS'paige conn'
p236
aS'ok'
p237
aS'bff me'
p238
aS'hey kyle i love your vines and musicallys'
p239
aS'hay'
p240
aS'you are my favorite muser my question to you is who do you prefer drake or logic'
p241
aS'hi'
p242
aS'hi kyle i m amber but people call me am i m a huge fan your so funny'
p243
ag29
aS'hi i m a fan my names demeri and i want to to say your really funny and i like your comedy so keep doing what you do'
p244
ag29
aS'hello is this kyle exum'
p245
aS'so are you kyle are not'
p246
aS'hey kyle'
p247
aS'hi'
p248
aS'i love your musical ly'
p249
aS'hey i really like your videos you do an amazing job keep up the hard work'
p250
aS'ok'
p251
aS'your my inspiration on musical ly who s your number one inspiration and how are you so funny'
p252
aS'yay that s awesome i was wondering if u could plz follow me'
p253
aS'bish what'
p254
aS'is this real'
p255
aS'i m a big fan'
p256
aS'i wish i can meet u in person isn t ur musical ly kyleexum'
p257
aS'ok'
p258
aS'i m not expecting you to answer but i look up to you'
p259
ag29
aS'your so welcome tbh your always making me smile even when im upset'
p260
aS'ok'
p261
aS'your welcome when i m feeling upset i just go watch ur videos to make me smile have a good day love you'
p262
aS'i m literally ur biggest fan'
p263
aS'thank you so much'
p264
aS'o my gosh i love your musicllys i love you soooooo much you are sooooooo funny love you plz reply'
p265
aS'i love your videos you are really funny bro stay cool'
p266
aS'ok is this an iphone'
p267
aS'hi boy off of musically'
p268
aS'can you follow or bff me wwefanforlife or wwefanforlife'
p269
aS'omg can you like shout me out on musically my username is breelaramore'
p270
aS'omg u responded'
p271
aS'i m a huge fan'
p272
ag29
aS'yeah no problem'
p273
aS'what s good kyle you make some creative musical lys where did the ideas come from'
p274
aS'getting a chance to text you is already awesome enough'
p275
aS'what is your favorite tv show'
p276
aS'ok'
p277
aS'ight'
p278
aS'ok'
p279
aS'thanks for the insta follow'
p280
aS'omgoodness is it really you'
p281
aS'omg thx so much'
p282
aS'okay well i m glad you are making people happy'
p283
aS'oops wrong number bye'
p284
aS'hey p'
p285
aS'hey'
p286
aS'was that you or does it send that message to everyone at first'
p287
aS'is this actually you'
p288
aS'ok great'
p289
aS'ok thanks'
p290
ag29
aS'hi i love your musical lys they make me laugh every time i see them'
p291
aS'ok r u related to icejjfish i just want to know cause u don t like him at all not at all totally not at all'
p292
aS'and also thanks for the bff it really made me happy i was screaming when you bffed me i was so excited'
p293
aS'hi'
p294
aS'ok'
p295
aS'my name is lovely queen love'
p296
aS'hi kyle ur awesome my name is kylee u inspire me and make me happy every time i see you love your musicallys ilysm'
p297
aS'can you follow me'
p298
aS'i think ur an awesome muser and i hope u can respond to me'
p299
aS'thanks for responding'
p300
aS'how do you come up with these ideas for musical lys'
p301
aS'ight'
p302
ag29
aS'and btw your musicallys are so funny'
p303
aS'are you still there'
p304
aS'hi'
p305
aS'omg'
p306
aS'omg'
p307
aS'how are you'
p308
aS'omg is this really you hey kyle what s up just wanted to say hi and you are my fav muser out there i watch ur music lys all the time they are so good you probably won t text back but if you do that would mean sooooooo much to me'
p309
aS'hey is this kyle'
p310
aS'ok'
p311
aS'i love you kyle ur so funny'
p312
aS'hi kyle i really like the content you create and you make me laugh everyday we must live close because we both start with in our phone numbers'
p313
aS'are u the real one or just a fake person'
p314
aS'call me'
p315
aS'i have a question'
p316
aS'question what was the purpose of this thing and what made you think of it btw plz follow me on musically star of the sky i m a big fan'
p317
aS'ok'
p318
aS'i know that a lot of people might say the same thing but i m saying this from the bottom of my heart'
p319
aS'can you'
p320
aS'ur amazing i love ur musicallys'
p321
aS'hey'
p322
aS'hi i am toxinpvpz you are hilarious i love all your videos'
p323
aS'bff me plz'
p324
aS'hey i love you musicallys though'
p325
aS'ok'
p326
aS'hi'
p327
aS'your'
p328
aS'hey man i just wanted to say i really love all your musicals and they are really funny to watch so just keep it up'
p329
aS'call me'
p330
aS'yo i love ur vines man they r great keep doing what u do and keep up the good work'
p331
aS'hi what s up'
p332
aS'oh my gosh thank you'
p333
aS'oh wow i m stupid ur insta is on ur page oops'
p334
aS'ok thanks i love your musical ly s'
p335
aS'i love your video so funny'
p336
aS'okay'
p337
aS'okay'
p338
aS'welcome your cute and funny'
p339
aS'omg i m such a huge fan'
p340
aS'hey kyle'
p341
aS'hi kyle i m your biggest fan i love all your music lys you are so talented and amazing at what you do i hope you read this also my music ly is frizzy lizzy if you would follow me that would be soooo awesome and you are awesome'
p342
aS'your welcome thx so much for responding'
p343
aS'hi is this dan'
p344
aS'so how is life'
p345
aS'how old are you'
p346
aS'omg can u plz follow me on musical ly at kamya plz'
p347
aS'and they are pretty relatable too that s so cool'
p348
aS'hey it would make my year if you would respond i know you have so many fans but i litterally your biggest fan'
p349
aS'please follow meeee'
p350
aS'do u like ur fans'
p351
aS'hey kyle your really really funny'
p352
aS'thats cool'
p353
aS'sweet your awesome i ve been watching all you videos on vine and musicly'
p354
aS'spell check'
p355
aS'cool'
p356
aS'u look so much older on musically that s so cool'
p357
aS'hi is this kyle'
p358
aS'my name is kyle'
p359
aS'this is me btw'
p360
aS'do you like to make people laugh darnaysia'
p361
aS'hi ur my favorite muser ever ur skits r hilarious and ur such a good rapper'
p362
aS'test'
p363
aS'thank you so much'
p364
aS'welcome'
p365
aS'hi'
p366
aS'hi kyle you bff me not to long ago im penelopesart you are the funniest person i ve seen every time is like a missing laugh until i find it watching your videos your hilarious man'
p367
aS'what s ur favorite superhero'
p368
aS'hi'
p369
aS'hey i am i big fan of you please answer'
p370
aS'hi can you please repond im a really big fan and i really love you so much your awsome funny and also can you follow me on musically princess marissa bff'
p371
aS'is this the real kyleexum'
p372
aS'hi you are my favorite muser and you are hilarious in your musicallys'
p373
aS'how were you inspired to do them'
p374
aS'this is going to sound really corny but i m guessing you like popcorn sooo anyway i love your videos so much they are hilarious and i think that this idea of having a separate number to interact with your fans is really cool i hope you get to reply to my text and hopefully check out my musically username juliareichhhh'
p375
aS'hi can i get a shoutout on musical ly i think u are really funny my favorite is the pok mon go'
p376
aS'thanks kyle'
p377
aS'hello'
p378
aS'just want to say thanks for putting a smile on my face everyday your musical lys make me laugh soooo much'
p379
aS'hiii'
p380
aS'being a inspiration for me'
p381
aS'no problem'
p382
aS'i know that they are like people texting u but u are so funny and cool please do a duet or give me a shoutout name parker davis'
p383
aS'your videos are so funny'
p384
aS'kyle'
p385
aS'hey kyle'
p386
aS'hi'
p387
aS'hey this is rly cool if you to do'
p388
aS'is this just a automatic message or kyle'
p389
aS'yay i love all ur videos'
p390
aS'i m glad that u don t cus in them so i can watch them around my parents tysm ily'
p391
aS'ur musicalys r funny'
p392
aS'hey'
p393
aS'hey i just copy and pasted just cuz sorry'
p394
aS'hey i m a big fan of ur comedies on musical ly and i just wanted to say ur amazing'
p395
aS'i love you'
p396
aS'hey'
p397
aS'so hi'
p398
aS'hey kyle my name is jordan and i m from georgia i watch almost all of your musicallys they are amazing just like you you make me laugh at the worst times so i just want too say thank you and i love you and please bff me jojodean thanks i love you'
p399
aS'where do you come up with your videos'
p400
aS'can you bff and follow me on musically abbyecowan'
p401
aS'hi i love all of your videos'
p402
aS'your musically are so funny'
p403
aS'hows your summer been so far'
p404
ag29
aS'hey my brother goes to conard his names matt langevin do u know him'
p405
aS'hey it jaidon and your so funny you make me laugh every day please follow me jumpmanj'
p406
aS'hey'
p407
aS'hello'
p408
aS'best'
p409
aS'idk i m just curious'
p410
aS'it is ballin life i dont have a snap or ig or facebook or twitter or anything just musically'
p411
aS'i m mason'
p412
aS'do you think you will ever become a professional rapper ps this is really cool'
p413
aS'oh btw this is brah itz madison off of musically'
p414
ag29
aS'hi'
p415
aS'i love all of your musicallys your so funny'
p416
aS'hello'
p417
aS'ur awesome at musically'
p418
aS'hiiii omg ur are like the most funniest muser ever that i am following this is so nice what u are doing right now people might think this is a bad idea but i don t i hope u reply and one more thing can u pretty plz bff me that would mean alot to me and to know who u are talking to my user name is gogo hope u reply'
p419
aS'ok'
p420
aS'hey big fan'
p421
aS'how do you get a crown on musicaly'
p422
aS'what s your favorite color'
p423
aS'oml im such a big fan you look like a fun friend to hang with my name for musicl ly is rainbowgirl i hope you can check me out'
p424
aS'hiiiiii i m a huge fan ok what s your favorite show'
p425
aS'awesome i think it s super cool that you can do this with your fans i just wanted to say your videos are really funny and always put a smile on my face i hope you had a great day'
p426
aS'omg you reaponded i follow you on musical ly and instagram'
p427
aS'kk thx'
p428
aS'my name is francesca but you can call me frankee'
p429
aS'hi'
p430
aS'hey kyle when i typed in the phone number it turns out it s the same area code as my grandparents by any chance are u from connecticut'
p431
aS'ok'
p432
aS'hey i love your mom raps and all your parent vines they re so relatable'
p433
aS'i love your musicals'
p434
aS'plz answer me'
p435
aS'omg i love ur musicals they r so funny plz follow me'
p436
aS'thank you so much im such a huge fan'
p437
aS'how r u'
p438
aS'hey'
p439
aS'no problem'
p440
aS'welcome'
p441
ag29
aS'my account name is ems yaa'
p442
aS'np'
p443
aS'hi my name is kayla'
p444
aS'thank you'
p445
aS'muser plz respond'
p446
aS'wassup'
p447
aS'is your real name kyle exum or is that just a name you use on musical ly'
p448
aS'hi'
p449
aS'ok and i m honestly like ur biggest fan'
p450
aS'hi'
p451
aS'omgg hiiii please respond whn yhu can'
p452
aS'same just chillin'
p453
aS'omg i remuss all of your musical ly sounds you are so funny i really wish i could be as famous as you my musical ly is featuringciara'
p454
aS'omg hiii'
p455
aS'hiiii'
p456
aS'how are you doing'
p457
aS'the rest of the vids were awesome keep it up'
p458
aS'hi i can t believe this i am such a fan of your musical lys you are so funny if you can can you start request for future musical lys and mention people who requested it in your musical lys that would be wonderful i know i m asking for a lot but can you follow me lol i get if you don t want to but please it would mean the world to have my favorite muser follow me my musically is melon and i will be posting musical lys a lot i just deleted them because of difficulties i m sorry i m asking a lot thank you for being my favorite muser i love you'
p459
aS'can you give me a shout out'
p460
aS'hi i follow you on musically your funny'
p461
aS'okay hey kyle sounds cool so wyd btw ur videos are funny'
p462
aS'u don t have to'
p463
aS'hiiiiiiii'
p464
aS'it s me thebosscreper'
p465
aS'hey man love you musicales keep doing what your doing'
p466
aS'hey i love what u do soooo much i follow u and have your notifications on on musical ly i really hope u reaspond to this that would be a dream come true to me this is what my face would look like if u respond to me i love u sooooo much and have a nice day'
p467
aS'yo wassup'
p468
aS'hey kyle hope u see this and if can i get a shout out on instagram please and have a great day'
p469
aS'i follow a lot of crowned people but you are my favorite'
p470
aS'hey'
p471
aS'okay i ll be more serious i m sure you heard this from everyone but you are seriously hilarious and you make awesome musicals'
p472
aS'your so funny you make me laugh when i m sad'
p473
aS'swordpizza is my user'
p474
aS'hey kyle i m one of your fans i can t wait for the mom rap lol'
p475
aS'do you think you could follow me or no'
p476
aS'btw ily'
p477
aS'so cool'
p478
aS'your welcone'
p479
aS'your musical ly videos are amazing'
p480
aS'will you'
p481
aS'ok thx so much'
p482
aS'when did u start making musicallys'
p483
aS'its u'
p484
aS'hi'
p485
aS'ilysm your so funny omg ah'
p486
aS'just uploaded a musically'
p487
aS'hi kyle u have amazing videos'
p488
aS'hello i just wanted to say your really funny and i love your musicals they just make me laugh so much your so awesome i watch and like almost everyone of your musicals if be so happy if you took a look at my account i m yuna thank you'
p489
aS'hi'
p490
aS'hello'
p491
aS'which one do i text on'
p492
aS'i m nathan'
p493
aS'hi'
p494
aS'hi kyle your so funny i love your sprit and you musical lys you make my day'
p495
aS'plz reply'
p496
aS'hi i m makayla i m a really big fan i love your music ly s your really good at them and funny'
p497
aS'hello'
p498
aS'thx my dad is in the army so sometimes i get sad watching your musical lys make me happy pls call me'
p499
aS'hi'
p500
aS'omg hiiiiii my name is julia'
p501
aS'ok'
p502
aS'hi'
p503
aS'hi'
p504
aS'thanx'
p505
aS'i m a big fan of u i love your musicallys'
p506
aS'hi'
p507
aS'is it really u'
p508
aS'your girl a thot'
p509
aS'thank you so much for answering can i ask you a question'
p510
aS'hey omg i m a big fan of yours like seriously you are really funny and lol i can t believe you gave your number out'
p511
aS'k why do u love making funny musical lys'
p512
aS'hi'
p513
aS'what do you mean'
p514
ag29
aS'also i m a big fan of you'
p515
aS'can you make me bff on musically'
p516
aS'trying to get more and follower makes a difference'
p517
aS'hi'
p518
aS'd'
p519
aS'are you able to reply'
p520
aS'can i have a bff on music ly'
p521
aS'i just wanted to say your awesome'
p522
aS'omg thank you so much you re so amazing and hilarious and i love you re videos'
p523
aS'i love your musical lys my musical ly name is tristen van you are so funny plz no that you vids are awesome and i know that you have millions of messages but i want you to know if you see this plz say hi'
p524
aS'hi'
p525
aS'thanks man u are so funny'
p526
aS'hey kyle i m one of you re fans on musically i m kiley valentine and i have you re post notifications on because everytime i watch you re vids i laugh so hard i hope you respond and thx for making my day everyday especially when i m sad thx sooooo sooooo much i m happy to get to tell you this and plz don t stop being funny'
p527
aS'it s true you are in my opinion the best viner'
p528
aS'try to respond to your messages when i can and it said to go to'
p529
aS'your'
p530
aS'can you follow me on musically it s itztantheman'
p531
aS'ok thank u soo much'
p532
aS'hi'
p533
aS'omg is this really u'
p534
aS'love desi'
p535
aS'wyd'
p536
aS'u r welcome'
p537
aS'i love you vines and musical lys'
p538
aS'thank you and you also say awesome'
p539
aS'can you follow me on musical ly my accounts are katelynnbadillo katelynn'
p540
aS'hi'
p541
aS'yay'
p542
aS'so can you follow and bff me'
p543
aS'probably not'
p544
aS'hi kyle'
p545
aS'ok'
p546
aS'thank you so so much for replying'
p547
aS'what'
p548
ag29
aS'please answer me'
p549
aS'hello'
p550
aS'can you follow me on musically i will spam u'
p551
aS'you are the awesome one for texting me back you are so nice to give out your number because it is making me and everyone else happy'
p552
aS'ok'
p553
aS'hey'
p554
aS'ok btw i think u r awesome and u r funny u have swag ps u slay'
p555
ag29
aS'hi'
p556
aS'is this kyle exum'
p557
aS'can you follow me or give me a bff plz'
p558
aS'you are my favorite muser and i m sorry for spamming you'
p559
aS'on musically'
p560
aS'lol not fan girl so much but i can t believe i m actually texting u'
p561
aS'ok awesome'
p562
aS'hello does this work'
p563
aS'omg is it really you'
p564
aS'hello'
p565
aS'i luv your musical lys they are so funny'
p566
aS'hey'
p567
aS'hi kyle i love your musical ly videos so much'
p568
aS'omg really i m dieng ur awesome and so funny i hope i can meet you one day'
p569
aS'what do u think inspired u the most'
p570
aS'hey man love your miniature vines on musically they always make me laugh keep the work up'
p571
aS'hey'
p572
aS'you are so funny and cool'
p573
aS'hi kyle you are soooo funny and i love watching your videos it would be great if you could bff me on musically but i understand if you don t want to because everyone is probably asking just in case my username is dr i have one question how do you come up with your originals do they like spontaneously come to you or something please try to respond'
p574
aS'oh my gosh'
p575
aS'ok'
p576
aS'follow me rohanion i d appreciate it'
p577
aS'ur really funny btw and ur videos make me laugh all the time and i really hope u keep posting'
p578
aS'bbiegs is my username'
p579
aS'hi kyle'
p580
aS'hey'
p581
aS'and always make me laugh so thanks for that'
p582
aS'if you are can you please bff me cause you are so amazing please'
p583
aS'ok'
p584
aS'please'
p585
aS'hi how are u'
p586
aS'kylexum has posted a new musical c ya'
p587
aS'hi kyle'
p588
aS'hey kyle'
p589
aS'how is it knowing you make so many people laugh'
p590
aS'no probs'
p591
aS'hi kyle'
p592
aS'what country do u live in i live in savannah georgia'
p593
ag29
aS'thanks did you get a differnt phone just for this'
p594
aS'you re really funny and i hope you respond that would be really'
p595
aS'xoxoxoxo'
p596
aS'ok'
p597
aS'hi i am a huge fan can you follow me on musically'
p598
aS'i m gonna cry'
p599
aS'aye my name is noah'
p600
aS'i meant an instead of and'
p601
aS'aye'
p602
aS'btw how do you come up with lyrics and beats so easily'
p603
aS'thank you so much i can t believe i m actually talking to you'
p604
aS'hey'
p605
aS'make a new music ly'
p606
aS'awesome'
p607
aS'ok i m a huge fan u r awesome and super funny'
p608
aS'so it s been exactly an hour so can you talk'
p609
aS'i can t believe u replied'
p610
aS'can u follow me in musically'
p611
aS'but all i want to say is that you are great at what you do every video you make makes me laugh keep up the amazing work'
p612
aS'i love the thot song'
p613
aS'ok'
p614
aS'and ur really good at making people laugh'
p615
aS'your welcome'
p616
aS'what'
p617
aS'you welcome thank you for responding'
p618
ag29
aS'omg is this kyle'
p619
aS'hii'
p620
aS'can u drive'
p621
aS'hey i love your musical ly s you re really funny haha and thanks for bffing me'
p622
aS'love'
p623
aS'thanka'
p624
aS'if you could do the thing above and send it to me i would be so happy'
p625
aS'hi my name is grace i love your musicallys so much maybe could u follow me or create duet thanks'
p626
aS'what s up'
p627
aS'hello i m a big fan of you musically account i would love if i could have a bff i d cry for joy for a million years well i hope you have a good rest of your day'
p628
aS'i liked like almost all your videos'
p629
aS'omg hi your amazing'
p630
aS'hi'
p631
aS'oh ok ahhhh i can t belive this is happening'
p632
aS'ur the best on music ly'
p633
aS'hi kyle i love your musical ly videos they are so funny'
p634
aS'it would mean so much of i got a follow your videos are so funny just incase lovelylove'
p635
aS'hey'
p636
aS'hi'
p637
aS'hi omg'
p638
aS'it is monkey boy'
p639
aS'hi'
p640
aS'hiiiii i love your musical ly s you re the best'
p641
aS'hi'
p642
aS'hello'
p643
aS'how old r u'
p644
aS'i love your musicly'
p645
aS'my names kori and i have a musical ly it s called kori jo'
p646
aS'hi kyle i m a huge fan and i think your super funny ilysm'
p647
aS'ok'
p648
aS'dude you don t have to text me u can text me whenever your free bro well my name is andrew'
p649
aS'can u plz follow me on musicly matheushd'
p650
aS'if u don t answer it s gucci'
p651
aS'can u follow me back'
p652
aS'hey'
p653
aS'reply help to opt out florence korsah hi'
p654
aS'ok omg hi i am a huge fan of you please respond to this and i just had a question can you follow me and did your parents actually do that to you thank you so so much for responding back i love what you do keep doing and do you do youtube i really wanna know if not try it out i think you ll be really good at it'
p655
aS'hi'
p656
aS'hi'
p657
aS'ok so what is ur fav color'
p658
aS'hi im jaya i just wanted you to know how amazing you are you make me smile every day thank you for being soooo great'
p659
ag29
aS'skyler'
p660
aS'omg hi'
p661
aS'follow me trinbooboo'
p662
aS'no problem there awesome'
p663
aS'hi kyle i love ur musicallys ur so funny and make me laugh every time i watch them if u could do a live stream one day that would be really cool'
p664
aS'i m a huge fan'
p665
aS'yay'
p666
aS'ok i just can t believe i m really talking to u'
p667
aS'yay ok thank you'
p668
aS'ok'
p669
aS'yooo you responded but bro i really enjoy your vines keep grinding and never stop'
p670
aS'hi i love you you make the best musicallys ever and you inspire me to be me and let nobody tell me what to do and i want to thank you for that'
p671
aS'kyle exum can you bff me on musical ly simeron'
p672
aS'ok'
p673
aS'hey my name is sierra and your videos make me laugh every day i stress very easily and i just wanted to thank you for making me laugh and smile every day and even if people hate just keep doing what your doing because you are making an impact on people s lives thank you'
p674
aS'hey kyle i just wanted to say how much i love your musicallys they make me laugh so hard and i love watching them over and over again i think it s rly cool how you make whatever videos you want and don t care what ppl think hope you have a good day it s ok if you don t respond i just thought why not give it a try'
p675
aS'can u follow or na'
p676
aS'your welcome and omg you answered'
p677
aS'ok'
p678
aS'cool'
p679
aS'hi'
p680
aS'btw hi im a huge fan'
p681
aS'you re welcome'
p682
aS'hi'
p683
aS'hi i know that you have a lot of fans and are busy but i am such a huge fan i think musical lys are so funny i always enjoy watching them the raping ones are funny too i remember one and i quote you never do anything around this house better wash those dishes better watch that mouth ok mom boy don t get an attitude it would mean a lot if you replied could you follow me on musically maybe'
p684
aS'hi'
p685
ag29
aS'np'
p686
aS'ok thx'
p687
aS'ok'
p688
aS'piz follow me'
p689
aS'hi can i just say u inspire me your vines are'
p690
aS'hi i l ve your mudical lys they re so creative and funny'
p691
aS'can u talk now'
p692
aS'yo kyle idc if you don t see this but i love all of your vines they are so funny and original love your work'
p693
aS'idk if u will respond or nah'
p694
aS'thanks so much for the reply hey i m just wondering maybe can we facetime someday'
p695
aS'hi kyleexum i sent a message to the number u set up on musical ly and it told me i could message u directly'
p696
aS'sup im a really big fan'
p697
aS'ok how are you'
p698
aS'who is your favorite muser'
p699
aS'i know you are busy texting other people but i just wanted to sy ur music lys are amazing and hilarious'
p700
aS'please respond'
p701
aS'omg hi'
p702
aS'no problem'
p703
ag29
aS'hello'
p704
aS'hi'
p705
aS'hi'
p706
aS'thank you so much for making funny videos and making smile laugh every day also one question what do you love most about your fans'
p707
aS'can u bff me or follow me on musically i follow u'
p708
aS'thank you'
p709
aS'hi i love you so much'
p710
aS'you are my favorite person on musical ly'
p711
aS'ok thx'
p712
aS'i cant belive you actually responded'
p713
aS'hey kyle i love ur musicallys you re rlyyyy funny thx for letting us text u and i can t wait to hear more of ur raps they re lit hope u see this'
p714
aS'ok'
p715
aS'can you bff me'
p716
aS'your choice'
p717
aS'my name is bre'
p718
aS'hi'
p719
aS'you post cool videos keep doing what your doing'
p720
aS'my name is rebecca byk w'
p721
aS'i meant the one about mcdonald s'
p722
aS'and i would love to be like you someday my musically is danny boi if you wanted to follow me or check out my musicals thanks'
p723
aS'hiii'
p724
aS'that s insane'
p725
aS'it s my birthday and it would make my day of u texted me'
p726
aS'it s raiden player'
p727
aS'thx so much i m a big fan and everything u post is so true i told all my friends so follow u'
p728
aS'omg ok'
p729
aS'i love you'
p730
aS'hi'
p731
aS'hi kyle i love your musically s i hope you are having a good day your super funny'
p732
aS'i love your vines and musicallys your so funny'
p733
aS'how old are you'
p734
aS'okay so what s up'
p735
aS'cool'
p736
aS'are you an automatic machine'
p737
aS'hi kyle'
p738
ag29
aS'ok'
p739
aS'hey kyle i just wanted to let you know that i love your musicals they make me laugh every time i watch them i could be so sad and then watch your videos and they d make me so happy so thank you for that olivia'
p740
aS'i was wondering if u could follow me on musically'
p741
aS'hi'
p742
aS'its jumpin like jordan'
p743
aS'your welcome i like the one you just posted there all so relatable'
p744
aS'your videos'
p745
aS'hello'
p746
aS'hi my name is evelyn and my username on musical ly is v lyn many people say to go look at their profile but i really would appreciate it if you did please write me back if you get this and if you looked at my post or like one of mine and i will know'
p747
aS'hey'
p748
aS'okay i can t believe i m actually talking to u'
p749
aS'the amazing work man love you man'
p750
aS'heyyy haha i just wanted to let you know i m a really big fan of your videos and that i think you re hilarious feel free to follow me lol rockstarcamille'
p751
aS'hello'
p752
aS'i never asked if it is u'
p753
aS'your welcome i can t believe you responded'
p754
aS'ur welcome'
p755
aS'hey kyle i really like your musiclys and i think its amazing that you come up with all of these ideas cause there truly amazing'
p756
aS'k love you and your vines'
p757
aS'wyd'
p758
aS'i just gotta say that your musicallys are so funny there the best'
p759
aS'send me a picture'
p760
ag29
aS'hi'
p761
aS'i m jordin and i m a big fan'
p762
aS'hi'
p763
aS'what'
p764
aS'send me a pic i want to know if it s actually u'
p765
aS'you re super funny'
p766
aS'hi'
p767
aS'hi kyle'
p768
aS'hi'
p769
aS'just wondering i know your busy but did you read my um text yet'
p770
aS'wn to earth'
p771
aS'i love your musicalys they are really funny'
p772
aS'my name is julia'
p773
aS'i love your musical lys your so funny'
p774
aS'bye'
p775
aS'omg hi ur a really big inspiration to me u cheer me up when i m down all the time and it is my birthday so it eould make my day if u texted me back a simple word would make me happy'
p776
aS'can u plz follow me on musical ly malaysia oquinn'
p777
aS'oml is this actually kyle i love your vines so much you make me laugh so hard'
p778
aS'hi'
p779
aS'hello i just wanted to let you know that i love your videos they are hilarious and they are very relatable your videos always makee laugh'
p780
aS'that picture was of my friend'
p781
aS'hello are u making any new vids'
p782
aS'i love the skits you do on musical ly'
p783
aS'hi'
p784
aS'love your videos so much'
p785
aS'it s me jack again'
p786
aS'hi i like how you do those funny video some of them are actually true'
p787
aS'hi'
p788
aS'u inspire me a lot'
p789
aS'hi'
p790
aS'omg thank you so much'
p791
aS'can you bff me on musically on hiplikejaobbb it is fine if you don t want to'
p792
aS'my username is khanjr'
p793
aS'hello'
p794
aS'i love your videos'
p795
aS'im bored jus layin in bed'
p796
aS'hi kyle ur vines and musical lys are hilarious and i can relate to them hope you can reply soon'
p797
aS'hey this is jaiden i love you omg hey'
p798
aS'omg i love your music lys'
p799
ag29
aS'hi'
p800
aS'please reply'
p801
aS'i saw your musically with the respomding thing'
p802
aS'hi'
p803
aS'it s ok if u don t respond i understand but i would love for u to respond'
p804
aS'hey can u follow me plz and bff me plz it would be awesome'
p805
aS'ok'
p806
aS'ok'
p807
aS'okay dope'
p808
aS'omg'
p809
aS'kyle your really cool and i like your musicallys and ily and can we be bffs ily'
p810
aS'i love your musicllys'
p811
aS'ok btw your vines are halaroius'
p812
aS'ok'
p813
aS'np'
p814
aS'no problem'
p815
aS'its raplikeaboss from musically'
p816
aS'this is real like real real'
p817
aS'you take all the time you need your awesome'
p818
aS'i can t stop wacthing it'
p819
aS'good u should post more vines plz'
p820
aS'you make my day every time i watch your videos'
p821
aS'np i m so happy u answered me'
p822
aS'it would be so cool if you followed me'
p823
aS'hey kyle my name is mary and i think you re super funny i just wanted to ask you what it was like whenever you got your first feature on musical ly just curious maryellasanders p s i love your pok mon go musical i can so relate'
p824
aS'okay i m fan of your musical ly s they are the best when you make them your own'
p825
aS'omg thank i love ur musically they are so funny thank you for responding'
p826
a.